	.file	"kara768.c"
	.text
	.p2align 4,,15
	.type	karatsuba.constprop.0, @function
karatsuba.constprop.0:
.LFB4613:
	.cfi_startproc
	leaq	8(%rsp), %r10
	.cfi_def_cfa 10, 0
	andq	$-32, %rsp
	leaq	1024(%rdx), %rax
	movq	%rsi, %r11
	leaq	1056(%rdx), %rsi
	pushq	-8(%r10)
	pushq	%rbp
	.cfi_escape 0x10,0x6,0x2,0x76,0
	movq	%rsp, %rbp
	pushq	%r15
	pushq	%r14
	pushq	%r13
	pushq	%r12
	.cfi_escape 0x10,0xf,0x2,0x76,0x78
	.cfi_escape 0x10,0xe,0x2,0x76,0x70
	.cfi_escape 0x10,0xd,0x2,0x76,0x68
	.cfi_escape 0x10,0xc,0x2,0x76,0x60
	movq	%rcx, %r13
	pushq	%r10
	.cfi_escape 0xf,0x3,0x76,0x58,0x6
	pushq	%rbx
	.cfi_escape 0x10,0x3,0x2,0x76,0x50
	movq	%rdi, %rbx
	movq	%rdx, %r12
	leaq	1056(%rbx), %r14
	leaq	1024(%rdi), %r10
	subq	$96, %rsp
	movq	%rax, -96(%rbp)
	leaq	1024(%rcx), %rax
	addq	$1056, %rcx
	movq	%rax, -104(%rbp)
	leaq	32(%rdi), %rax
	cmpq	%rax, %rdx
	movq	%rax, %rdi
	movq	%rax, -112(%rbp)
	setnb	%dl
	cmpq	%rsi, %rbx
	setnb	%al
	orl	%eax, %edx
	cmpq	%r14, %r12
	setnb	%al
	cmpq	%rsi, %r10
	setnb	%sil
	orl	%esi, %eax
	andl	%eax, %edx
	cmpq	%rdi, %r13
	setnb	%al
	cmpq	%rcx, %rbx
	setnb	%sil
	orl	%esi, %eax
	testb	%al, %dl
	je	.L2
	cmpq	%r14, %r13
	setnb	%dl
	cmpq	%rcx, %r10
	setnb	%al
	orb	%al, %dl
	je	.L2
	movq	%r12, %rdx
	shrq	$3, %rdx
	negq	%rdx
	andl	$3, %edx
	je	.L29
	movq	(%r12), %rax
	subq	1024(%r12), %rax
	movq	%rax, (%rbx)
	movq	1024(%r13), %rax
	subq	0(%r13), %rax
	cmpq	$1, %rdx
	movq	%rax, 1024(%rbx)
	je	.L30
	movq	8(%r12), %rax
	subq	1032(%r12), %rax
	movq	%rax, 8(%rbx)
	movq	1032(%r13), %rax
	subq	8(%r13), %rax
	cmpq	$3, %rdx
	movq	%rax, 1032(%rbx)
	jne	.L31
	movq	16(%r12), %rax
	subq	1040(%r12), %rax
	movq	$125, -72(%rbp)
	movq	$3, -64(%rbp)
	movq	%rax, 16(%rbx)
	movq	1040(%r13), %rax
	subq	16(%r13), %rax
	movq	%rax, 1040(%rbx)
.L4:
	movl	$128, %eax
	movq	$124, -80(%rbp)
	movq	$31, -56(%rbp)
	subq	%rdx, %rax
	movq	%rax, -88(%rbp)
.L3:
	salq	$3, %rdx
	xorl	%eax, %eax
	xorl	%esi, %esi
	leaq	1024(%rdx), %rcx
	leaq	(%r12,%rdx), %r15
	leaq	(%rbx,%rdx), %r8
	addq	%r13, %rdx
	leaq	(%r12,%rcx), %r9
	leaq	0(%r13,%rcx), %rdi
	addq	%rbx, %rcx
.L5:
	vmovdqu	(%r9,%rax), %xmm0
	addq	$1, %rsi
	vinserti128	$0x1, 16(%r9,%rax), %ymm0, %ymm0
	vmovdqa	(%r15,%rax), %ymm1
	vpsubq	%ymm0, %ymm1, %ymm0
	vmovups	%xmm0, (%r8,%rax)
	vextracti128	$0x1, %ymm0, 16(%r8,%rax)
	vmovdqu	(%rdi,%rax), %xmm0
	vinserti128	$0x1, 16(%rdi,%rax), %ymm0, %ymm1
	vmovdqu	(%rdx,%rax), %xmm0
	vinserti128	$0x1, 16(%rdx,%rax), %ymm0, %ymm0
	vpsubq	%ymm0, %ymm1, %ymm0
	vmovups	%xmm0, (%rcx,%rax)
	vextracti128	$0x1, %ymm0, 16(%rcx,%rax)
	addq	$32, %rax
	cmpq	%rsi, -56(%rbp)
	ja	.L5
	movq	-80(%rbp), %rdi
	movq	-64(%rbp), %rax
	movq	-72(%rbp), %rdx
	addq	%rdi, %rax
	subq	%rdi, %rdx
	cmpq	-88(%rbp), %rdi
	je	.L77
	leaq	0(,%rax,8), %rcx
	movq	(%r12,%rax,8), %rsi
	subq	1024(%r12,%rcx), %rsi
	movq	%rsi, (%rbx,%rax,8)
	movq	1024(%r13,%rcx), %rsi
	subq	0(%r13,%rax,8), %rsi
	cmpq	$1, %rdx
	movq	%rsi, 1024(%rbx,%rcx)
	leaq	1(%rax), %rcx
	je	.L77
	leaq	0(,%rcx,8), %rsi
	movq	(%r12,%rcx,8), %rdi
	addq	$2, %rax
	subq	1024(%r12,%rsi), %rdi
	movq	%rdi, (%rbx,%rcx,8)
	movq	1024(%r13,%rsi), %rdi
	subq	0(%r13,%rcx,8), %rdi
	cmpq	$2, %rdx
	movq	%rdi, 1024(%rbx,%rsi)
	je	.L77
	leaq	0(,%rax,8), %rdx
	movq	(%r12,%rax,8), %rcx
	subq	1024(%r12,%rdx), %rcx
	movq	%rcx, (%rbx,%rax,8)
	movq	1024(%r13,%rdx), %rcx
	subq	0(%r13,%rax,8), %rcx
	movq	%rcx, 1024(%rbx,%rdx)
	vzeroupper
.L10:
	leaq	1024(%r11), %rax
	movq	%r10, %rdx
	movq	%r11, %rdi
	movl	$128, %ecx
	movq	%rbx, %rsi
	movq	%r10, -64(%rbp)
	movq	%rax, -72(%rbp)
	movq	%r11, -56(%rbp)
	leaq	2048(%rbx), %r15
	call	grade_school_mul_optim@PLT
	movq	-104(%rbp), %rdx
	movq	-96(%rbp), %rsi
	movl	$128, %ecx
	movq	%r15, %rdi
	call	grade_school_mul_optim@PLT
	movq	-56(%rbp), %r11
	movq	-64(%rbp), %r10
	leaq	2080(%rbx), %rcx
	leaq	1056(%r11), %r8
	cmpq	%r14, %r11
	setnb	%dl
	cmpq	%r8, %r10
	setnb	%al
	cmpq	%rcx, %r11
	setnb	%cl
	cmpq	%r8, %r15
	setnb	%r14b
	orl	%ecx, %r14d
	orb	%al, %dl
	movb	%dl, -56(%rbp)
	je	.L11
	testb	%r14b, %r14b
	je	.L11
	movq	%r15, %rdx
	shrq	$3, %rdx
	negq	%rdx
	andl	$3, %edx
	je	.L32
	movq	2048(%rbx), %rcx
	movq	%rcx, %rax
	addq	(%r11), %rax
	movq	%rax, 1024(%rbx)
	movq	1024(%r11), %rax
	addq	3072(%rbx), %rax
	addq	%rcx, %rax
	cmpq	$1, %rdx
	movq	%rax, 2048(%rbx)
	je	.L33
	movq	2056(%rbx), %rcx
	movq	%rcx, %rax
	addq	8(%r11), %rax
	movq	%rax, 1032(%rbx)
	movq	1032(%r11), %rax
	addq	3080(%rbx), %rax
	addq	%rcx, %rax
	cmpq	$3, %rdx
	movq	%rax, 2056(%rbx)
	jne	.L34
	movq	2064(%rbx), %rcx
	movq	%rcx, %rax
	addq	16(%r11), %rax
	movq	%rax, 1040(%rbx)
	movq	1040(%r11), %rax
	addq	3088(%rbx), %rax
	addq	%rcx, %rax
	movl	$125, %ecx
	movq	%rax, 2064(%rbx)
	movl	$3, %eax
.L13:
	movl	$128, %esi
	movq	$124, -88(%rbp)
	movq	$31, -80(%rbp)
	subq	%rdx, %rsi
	movq	%rsi, -96(%rbp)
.L12:
	leaq	2048(,%rdx,8), %rdx
	movq	%rcx, -136(%rbp)
	movq	$0, -64(%rbp)
	movq	%rax, -128(%rbp)
	leaq	-1024(%rdx), %r9
	leaq	(%rbx,%rdx), %rdi
	leaq	(%rbx,%r9), %rsi
	movq	%rdi, -104(%rbp)
	addq	%r11, %r9
	leaq	-2048(%r11,%rdx), %rdi
	movq	%rsi, -120(%rbp)
	movq	-120(%rbp), %rcx
	leaq	1024(%rbx,%rdx), %rsi
	xorl	%edx, %edx
.L14:
	vmovdqu	(%rdi,%rdx), %xmm1
	movq	-104(%rbp), %rax
	addq	$1, -64(%rbp)
	vinserti128	$0x1, 16(%rdi,%rdx), %ymm1, %ymm1
	vmovdqa	(%rax,%rdx), %ymm0
	vpaddq	%ymm1, %ymm0, %ymm1
	vmovups	%xmm1, (%rcx,%rdx)
	vextracti128	$0x1, %ymm1, 16(%rcx,%rdx)
	vmovdqu	(%rsi,%rdx), %xmm1
	vmovdqu	(%r9,%rdx), %xmm2
	vinserti128	$0x1, 16(%rsi,%rdx), %ymm1, %ymm1
	vinserti128	$0x1, 16(%r9,%rdx), %ymm2, %ymm2
	vpaddq	%ymm1, %ymm2, %ymm1
	vpaddq	%ymm0, %ymm1, %ymm0
	vmovdqa	%ymm0, (%rax,%rdx)
	movq	-64(%rbp), %rax
	addq	$32, %rdx
	cmpq	%rax, -80(%rbp)
	ja	.L14
	movq	-136(%rbp), %rcx
	movq	-88(%rbp), %rdi
	movq	-128(%rbp), %rax
	movq	%rcx, %rsi
	subq	%rdi, %rsi
	addq	%rdi, %rax
	cmpq	-96(%rbp), %rdi
	movq	%rsi, %rcx
	je	.L79
	leaq	0(,%rax,8), %rdx
	movq	%rcx, -64(%rbp)
	leaq	(%r15,%rdx), %rsi
	movq	(%rsi), %rdi
	movq	%rdi, %r9
	addq	(%r11,%rax,8), %r9
	movq	%r9, 1024(%rbx,%rdx)
	movq	1024(%r11,%rdx), %r9
	addq	3072(%rbx,%rdx), %r9
	movq	%r9, %rdx
	leaq	1(%rax), %r9
	addq	%rdi, %rdx
	cmpq	$1, %rcx
	movq	%rdx, (%rsi)
	je	.L79
	leaq	0(,%r9,8), %rdx
	addq	$2, %rax
	leaq	(%r15,%rdx), %rsi
	movq	(%rsi), %rdi
	movq	%rdi, %rcx
	addq	(%r11,%r9,8), %rcx
	movq	%rcx, 1024(%rbx,%rdx)
	movq	1024(%r11,%rdx), %r9
	addq	3072(%rbx,%rdx), %r9
	movq	%r9, %rdx
	addq	%rdi, %rdx
	cmpq	$2, -64(%rbp)
	movq	%rdx, (%rsi)
	je	.L79
	leaq	0(,%rax,8), %rsi
	leaq	(%r15,%rsi), %rdx
	movq	(%rdx), %rcx
	movq	%rcx, %rdi
	addq	(%r11,%rax,8), %rdi
	movq	%rdi, 1024(%rbx,%rsi)
	movq	1024(%r11,%rsi), %rax
	addq	3072(%rbx,%rsi), %rax
	addq	%rcx, %rax
	movq	%rax, (%rdx)
	vzeroupper
.L19:
	movq	%r13, %rdx
	movq	%r11, %rdi
	movl	$128, %ecx
	movq	%r12, %rsi
	movq	%r8, -88(%rbp)
	movq	%r10, -80(%rbp)
	movq	%r11, -64(%rbp)
	call	grade_school_mul_optim@PLT
	movq	-88(%rbp), %r8
	movq	-64(%rbp), %r11
	movq	-80(%rbp), %r10
	cmpq	%r8, %rbx
	setnb	%al
	cmpq	-112(%rbp), %r11
	setnb	%dl
	orl	%edx, %eax
	testb	%al, -56(%rbp)
	movq	%r11, %rax
	je	.L27
	testb	%r14b, %r14b
	je	.L27
	shrq	$3, %rax
	negq	%rax
	andl	$3, %eax
	je	.L35
	movq	(%r11), %rdx
	movq	%rdx, (%rbx)
	movq	(%r11), %rdx
	addq	1024(%rbx), %rdx
	addq	1024(%r11), %rdx
	movq	%rdx, 1024(%rbx)
	movq	1024(%r11), %rdx
	addq	%rdx, 2048(%rbx)
	cmpq	$1, %rax
	je	.L36
	movq	8(%r11), %rdx
	movq	%rdx, 8(%rbx)
	movq	8(%r11), %rdx
	addq	1032(%rbx), %rdx
	addq	1032(%r11), %rdx
	movq	%rdx, 1032(%rbx)
	movq	1032(%r11), %rdx
	addq	%rdx, 2056(%rbx)
	cmpq	$3, %rax
	jne	.L37
	movq	16(%r11), %rdx
	movl	$125, %ecx
	movq	%rdx, 16(%rbx)
	movq	16(%r11), %rdx
	addq	1040(%rbx), %rdx
	addq	1040(%r11), %rdx
	movq	%rdx, 1040(%rbx)
	movq	1040(%r11), %rdx
	addq	%rdx, 2064(%rbx)
	movl	$3, %edx
.L22:
	movl	$128, %r14d
	movl	$124, %edi
	movq	$31, -56(%rbp)
	subq	%rax, %r14
.L21:
	salq	$3, %rax
	movq	%rdx, -80(%rbp)
	xorl	%r13d, %r13d
	leaq	(%r11,%rax), %rsi
	leaq	(%rbx,%rax), %r12
	leaq	2048(%rbx,%rax), %r8
	movq	%rsi, -64(%rbp)
	leaq	1024(%rax), %rsi
	movq	-64(%rbp), %rdx
	xorl	%eax, %eax
	leaq	(%rbx,%rsi), %r9
	addq	%r11, %rsi
.L23:
	vmovdqa	(%rdx,%rax), %ymm0
	addq	$1, %r13
	vmovups	%xmm0, (%r12,%rax)
	vextracti128	$0x1, %ymm0, 16(%r12,%rax)
	vmovdqu	(%r9,%rax), %xmm0
	vinserti128	$0x1, 16(%r9,%rax), %ymm0, %ymm0
	vpaddq	(%rdx,%rax), %ymm0, %ymm1
	vmovdqu	(%rsi,%rax), %xmm0
	vinserti128	$0x1, 16(%rsi,%rax), %ymm0, %ymm0
	vpaddq	%ymm0, %ymm1, %ymm0
	vmovups	%xmm0, (%r9,%rax)
	vextracti128	$0x1, %ymm0, 16(%r9,%rax)
	vmovdqu	(%rsi,%rax), %xmm1
	vmovdqu	(%r8,%rax), %xmm0
	vinserti128	$0x1, 16(%rsi,%rax), %ymm1, %ymm1
	vinserti128	$0x1, 16(%r8,%rax), %ymm0, %ymm0
	vpaddq	%ymm0, %ymm1, %ymm0
	vmovups	%xmm0, (%r8,%rax)
	vextracti128	$0x1, %ymm0, 16(%r8,%rax)
	addq	$32, %rax
	cmpq	%r13, -56(%rbp)
	ja	.L23
	movq	-80(%rbp), %rdx
	subq	%rdi, %rcx
	addq	%rdi, %rdx
	cmpq	%r14, %rdi
	je	.L81
	leaq	0(,%rdx,8), %rax
	movq	-72(%rbp), %r9
	leaq	(%r11,%rax), %rsi
	leaq	(%r10,%rax), %r8
	movq	(%rsi), %rdi
	movq	%rdi, (%rbx,%rdx,8)
	movq	%r9, %rdi
	movq	(%rsi), %rsi
	addq	%rax, %rdi
	addq	(%r8), %rsi
	addq	(%rdi), %rsi
	movq	%rsi, (%r8)
	movq	(%rdi), %rsi
	leaq	1(%rdx), %rdi
	addq	%rsi, (%r15,%rax)
	cmpq	$1, %rcx
	je	.L81
	leaq	0(,%rdi,8), %rax
	addq	$2, %rdx
	leaq	(%r11,%rax), %rsi
	movq	(%rsi), %r8
	movq	%r8, (%rbx,%rdi,8)
	leaq	(%r10,%rax), %r8
	movq	%r9, %rdi
	addq	%rax, %rdi
	movq	(%rsi), %rsi
	addq	(%r8), %rsi
	addq	(%rdi), %rsi
	movq	%rsi, (%r8)
	movq	(%rdi), %rsi
	addq	%rsi, (%r15,%rax)
	cmpq	$2, %rcx
	je	.L81
	leaq	0(,%rdx,8), %rax
	leaq	(%r11,%rax), %rdi
	leaq	(%r10,%rax), %rsi
	movq	(%rdi), %rcx
	movq	%rcx, (%rbx,%rdx,8)
	movq	-72(%rbp), %rcx
	movq	(%rdi), %rdx
	addq	(%rsi), %rdx
	addq	%rax, %rcx
	addq	(%rcx), %rdx
	movq	%rdx, (%rsi)
	movq	(%rcx), %rdx
	addq	%rdx, (%r15,%rax)
	vzeroupper
.L82:
	addq	$96, %rsp
	popq	%rbx
	popq	%r10
	.cfi_remember_state
	.cfi_def_cfa 10, 0
	popq	%r12
	popq	%r13
	popq	%r14
	popq	%r15
	popq	%rbp
	leaq	-8(%r10), %rsp
	.cfi_def_cfa 7, 8
	ret
	.p2align 4,,10
	.p2align 3
.L77:
	.cfi_restore_state
	vzeroupper
	jmp	.L10
	.p2align 4,,10
	.p2align 3
.L29:
	movq	$128, -80(%rbp)
	movq	$32, -56(%rbp)
	movq	$128, -88(%rbp)
	movq	$128, -72(%rbp)
	movq	$0, -64(%rbp)
	jmp	.L3
	.p2align 4,,10
	.p2align 3
.L2:
	xorl	%eax, %eax
	.p2align 4,,10
	.p2align 3
.L9:
	movq	(%r12,%rax,8), %rdx
	subq	1024(%r12,%rax,8), %rdx
	movq	%rdx, (%rbx,%rax,8)
	movq	1024(%r13,%rax,8), %rdx
	subq	0(%r13,%rax,8), %rdx
	movq	%rdx, 1024(%rbx,%rax,8)
	addq	$1, %rax
	cmpq	$128, %rax
	jne	.L9
	jmp	.L10
	.p2align 4,,10
	.p2align 3
.L30:
	movq	$127, -72(%rbp)
	movq	$1, -64(%rbp)
	jmp	.L4
	.p2align 4,,10
	.p2align 3
.L31:
	movq	$126, -72(%rbp)
	movq	$2, -64(%rbp)
	jmp	.L4
	.p2align 4,,10
	.p2align 3
.L32:
	movq	$128, -88(%rbp)
	movq	$32, -80(%rbp)
	movl	$128, %ecx
	movq	$128, -96(%rbp)
	xorl	%eax, %eax
	jmp	.L12
	.p2align 4,,10
	.p2align 3
.L11:
	movq	%r10, %rdx
	movq	%r11, %rcx
.L18:
	movq	1024(%rdx), %rsi
	addq	$8, %rdx
	addq	$8, %rcx
	movq	%rsi, %rax
	addq	-8(%rcx), %rax
	movq	%rax, -8(%rdx)
	movq	1016(%rcx), %rax
	addq	2040(%rdx), %rax
	addq	%rsi, %rax
	movq	%rax, 1016(%rdx)
	cmpq	%r15, %rdx
	jne	.L18
	jmp	.L19
.L27:
	movq	(%rax), %rdx
	addq	$8, %rax
	movq	%rdx, (%rbx)
	movq	-8(%rax), %rdx
	addq	1024(%rbx), %rdx
	addq	1016(%rax), %rdx
	movq	%rdx, 1024(%rbx)
	movq	1016(%rax), %rdx
	addq	%rdx, 2048(%rbx)
	addq	$8, %rbx
	cmpq	%r10, %rbx
	jne	.L27
	jmp	.L82
	.p2align 4,,10
	.p2align 3
.L79:
	vzeroupper
	jmp	.L19
.L34:
	movl	$126, %ecx
	movl	$2, %eax
	jmp	.L13
.L33:
	movl	$127, %ecx
	movl	$1, %eax
	jmp	.L13
.L35:
	movl	$128, %ecx
	movl	$128, %edi
	movq	$32, -56(%rbp)
	movl	$128, %r14d
	xorl	%edx, %edx
	jmp	.L21
.L81:
	vzeroupper
	jmp	.L82
.L36:
	movl	$127, %ecx
	movl	$1, %edx
	jmp	.L22
.L37:
	movl	$126, %ecx
	movl	$2, %edx
	jmp	.L22
	.cfi_endproc
.LFE4613:
	.size	karatsuba.constprop.0, .-karatsuba.constprop.0
	.p2align 4,,15
	.globl	grade_school_mul_half
	.type	grade_school_mul_half, @function
grade_school_mul_half:
.LFB4605:
	.cfi_startproc
	testq	%rcx, %rcx
	je	.L149
	leaq	8(%rsp), %r10
	.cfi_def_cfa 10, 0
	andq	$-32, %rsp
	leaq	32(%rdx), %rax
	pushq	-8(%r10)
	pushq	%rbp
	.cfi_escape 0x10,0x6,0x2,0x76,0
	movq	%rsp, %rbp
	pushq	%r15
	pushq	%r14
	pushq	%r13
	pushq	%r12
	.cfi_escape 0x10,0xf,0x2,0x76,0x78
	.cfi_escape 0x10,0xe,0x2,0x76,0x70
	.cfi_escape 0x10,0xd,0x2,0x76,0x68
	.cfi_escape 0x10,0xc,0x2,0x76,0x60
	movq	%rcx, %r13
	pushq	%r10
	.cfi_escape 0xf,0x3,0x76,0x58,0x6
	pushq	%rbx
	.cfi_escape 0x10,0x3,0x2,0x76,0x50
	movq	%rdi, %rbx
	movq	%rax, %rdi
	movq	%rdx, %r10
	leaq	8(%rsi), %rcx
	movq	%rax, -104(%rbp)
	leaq	32(%rbx), %rax
	cmpq	%rax, %rdx
	setnb	%al
	cmpq	%rdi, %rbx
	setnb	%dl
	orl	%edx, %eax
	cmpq	$8, %r13
	seta	%dl
	testb	%dl, %al
	je	.L90
	leaq	(%rbx,%r13,8), %rax
	cmpq	%rax, %rsi
	setnb	%dl
	cmpq	%rcx, %rbx
	setnb	%al
	orb	%al, %dl
	je	.L90
	movq	%r10, %rax
	xorl	%r8d, %r8d
	shrq	$3, %rax
	negq	%rax
	andl	$3, %eax
	je	.L91
	movq	(%rsi), %rdx
	movl	$1, %r8d
	imulq	(%r10), %rdx
	cmpq	$1, %rax
	movq	%rdx, (%rbx)
	je	.L91
	movq	(%rsi), %rdx
	movl	$2, %r8d
	imulq	8(%r10), %rdx
	cmpq	$3, %rax
	movq	%rdx, 8(%rbx)
	jne	.L91
	movq	(%rsi), %rdx
	movl	$3, %r8d
	imulq	16(%r10), %rdx
	movq	%rdx, 16(%rbx)
.L91:
	movq	%r13, %r9
	leaq	0(,%rax,8), %rdx
	vpbroadcastq	(%rsi), %ymm3
	subq	%rax, %r9
	xorl	%edi, %edi
	xorl	%r14d, %r14d
	leaq	-4(%r9), %r11
	leaq	(%r10,%rdx), %rax
	addq	%rbx, %rdx
	vpsrlq	$32, %ymm3, %ymm4
	shrq	$2, %r11
	addq	$1, %r11
	leaq	0(,%r11,4), %r12
.L93:
	vmovdqa	(%rax,%rdi), %ymm0
	addq	$1, %r14
	vpmuludq	%ymm0, %ymm3, %ymm1
	vpsrlq	$32, %ymm0, %ymm2
	vpmuludq	%ymm0, %ymm4, %ymm0
	vpmuludq	%ymm3, %ymm2, %ymm2
	vpaddq	%ymm2, %ymm0, %ymm0
	vpsllq	$32, %ymm0, %ymm0
	vpaddq	%ymm0, %ymm1, %ymm0
	vmovups	%xmm0, (%rdx,%rdi)
	vextracti128	$0x1, %ymm0, 16(%rdx,%rdi)
	addq	$32, %rdi
	cmpq	%r14, %r11
	ja	.L93
	cmpq	%r12, %r9
	leaq	(%r8,%r12), %rax
	je	.L99
	movq	(%r10,%rax,8), %rdx
	imulq	(%rsi), %rdx
	movq	%rdx, (%rbx,%rax,8)
	leaq	1(%rax), %rdx
	cmpq	%rdx, %r13
	jbe	.L99
	movq	(%r10,%rdx,8), %rdi
	addq	$2, %rax
	imulq	(%rsi), %rdi
	cmpq	%rax, %r13
	movq	%rdi, (%rbx,%rdx,8)
	jbe	.L99
	movq	(%r10,%rax,8), %rdx
	imulq	(%rsi), %rdx
	movq	%rdx, (%rbx,%rax,8)
.L99:
	leaq	8(%rbx), %rdx
	leaq	-1(%r13), %r15
	movl	$1, %r14d
	jmp	.L108
	.p2align 4,,10
	.p2align 3
.L153:
	movq	(%rcx), %rsi
	leaq	1(%r14), %r9
	imulq	(%r10), %rsi
	movq	%r9, %rdi
	addq	%rsi, (%rdx)
	cmpq	$1, %rax
	movl	$1, %esi
	je	.L102
	movq	(%rcx), %rsi
	leaq	2(%r14), %rdi
	imulq	8(%r10), %rsi
	addq	%rsi, 8(%rdx)
	cmpq	$3, %rax
	movl	$2, %esi
	jne	.L102
	movq	(%rcx), %rsi
	leaq	3(%r14), %rdi
	imulq	16(%r10), %rsi
	addq	%rsi, 16(%rdx)
	movl	$3, %esi
.L102:
	movq	%r15, %r12
	vpbroadcastq	(%rcx), %ymm3
	movq	%r14, -96(%rbp)
	subq	%rax, %r12
	movq	%r12, -80(%rbp)
	subq	$4, %r12
	vpsrlq	$32, %ymm3, %ymm4
	shrq	$2, %r12
	addq	$1, %r12
	movq	%r12, -56(%rbp)
	salq	$2, %r12
	movq	%r12, -88(%rbp)
	leaq	(%r14,%rax), %r12
	salq	$3, %rax
	movq	%rcx, %r14
	leaq	(%rbx,%r12,8), %r12
	movq	%r12, -64(%rbp)
	leaq	(%r10,%rax), %r12
	addq	%r11, %rax
	addq	%rbx, %rax
	xorl	%r11d, %r11d
	movq	%rax, -72(%rbp)
	xorl	%eax, %eax
.L104:
	vmovdqu	(%r12,%rax), %xmm2
	addq	$1, %r11
	movq	-64(%rbp), %rcx
	vinserti128	$0x1, 16(%r12,%rax), %ymm2, %ymm2
	vpmuludq	%ymm3, %ymm2, %ymm1
	vpsrlq	$32, %ymm2, %ymm0
	vpmuludq	%ymm2, %ymm4, %ymm2
	vpmuludq	%ymm3, %ymm0, %ymm0
	vpaddq	%ymm2, %ymm0, %ymm0
	vpsllq	$32, %ymm0, %ymm0
	vpaddq	%ymm0, %ymm1, %ymm0
	vpaddq	(%rcx,%rax), %ymm0, %ymm0
	movq	-72(%rbp), %rcx
	vmovdqa	%ymm0, (%rcx,%rax)
	addq	$32, %rax
	cmpq	%r11, -56(%rbp)
	ja	.L104
	movq	-88(%rbp), %rax
	movq	%r14, %rcx
	movq	-96(%rbp), %r14
	addq	%rax, %rsi
	addq	%rax, %rdi
	cmpq	%rax, -80(%rbp)
	je	.L109
	movq	(%r10,%rsi,8), %rax
	imulq	(%rcx), %rax
	addq	%rax, (%rbx,%rdi,8)
	leaq	1(%rsi), %rdi
	leaq	(%r14,%rdi), %rax
	cmpq	%rax, %r13
	jbe	.L109
	movq	(%r10,%rdi,8), %rdi
	addq	$2, %rsi
	imulq	(%rcx), %rdi
	addq	%rsi, %r14
	addq	%rdi, (%rbx,%rax,8)
	cmpq	%r14, %r13
	jbe	.L109
	movq	(%r10,%rsi,8), %rax
	imulq	(%rcx), %rax
	addq	%rax, (%rbx,%r14,8)
.L109:
	addq	$8, %rdx
	subq	$1, %r15
	cmpq	%r9, %r13
	movq	%r9, %r14
	movq	%r8, %rcx
	je	.L152
.L108:
	cmpq	%r14, %r13
	leaq	1(%r14), %r9
	leaq	8(%rcx), %r8
	jbe	.L109
	leaq	(%r14,%r15), %rax
	leaq	8(%rcx), %r8
	leaq	0(,%r14,8), %r11
	leaq	(%rbx,%rax,8), %rax
	cmpq	%rax, %rcx
	setnb	%sil
	cmpq	%r8, %rdx
	setnb	%al
	orb	%al, %sil
	je	.L118
	leaq	32(%rdx), %rax
	cmpq	%rax, %r10
	setnb	%al
	cmpq	-104(%rbp), %rdx
	setnb	%sil
	orl	%esi, %eax
	cmpq	$7, %r15
	seta	%sil
	testb	%sil, %al
	je	.L118
	movq	%rdx, %rax
	shrq	$3, %rax
	negq	%rax
	andl	$3, %eax
	jne	.L153
	movq	%r14, %rdi
	xorl	%esi, %esi
	leaq	1(%r14), %r9
	jmp	.L102
	.p2align 4,,10
	.p2align 3
.L152:
	vzeroupper
.L144:
	popq	%rbx
	.cfi_restore 3
	popq	%r10
	.cfi_restore 10
	.cfi_def_cfa 10, 0
	popq	%r12
	.cfi_restore 12
	popq	%r13
	.cfi_restore 13
	popq	%r14
	.cfi_restore 14
	popq	%r15
	.cfi_restore 15
	popq	%rbp
	.cfi_restore 6
	leaq	-8(%r10), %rsp
	.cfi_def_cfa 7, 8
.L149:
	rep ret
	.p2align 4,,10
	.p2align 3
.L118:
	.cfi_escape 0xf,0x3,0x76,0x58,0x6
	.cfi_escape 0x10,0x3,0x2,0x76,0x50
	.cfi_escape 0x10,0x6,0x2,0x76,0
	.cfi_escape 0x10,0xc,0x2,0x76,0x60
	.cfi_escape 0x10,0xd,0x2,0x76,0x68
	.cfi_escape 0x10,0xe,0x2,0x76,0x70
	.cfi_escape 0x10,0xf,0x2,0x76,0x78
	xorl	%eax, %eax
	.p2align 4,,10
	.p2align 3
.L100:
	movq	(%r10,%rax,8), %rsi
	imulq	(%rcx), %rsi
	addq	%rsi, (%rdx,%rax,8)
	addq	$1, %rax
	cmpq	%r15, %rax
	jne	.L100
	leaq	1(%r14), %r9
	jmp	.L109
.L90:
	xorl	%eax, %eax
	.p2align 4,,10
	.p2align 3
.L97:
	movq	(%rsi), %rdx
	imulq	(%r10,%rax,8), %rdx
	movq	%rdx, (%rbx,%rax,8)
	addq	$1, %rax
	cmpq	%rax, %r13
	jne	.L97
	cmpq	$1, %r13
	ja	.L99
	jmp	.L144
	.cfi_endproc
.LFE4605:
	.size	grade_school_mul_half, .-grade_school_mul_half
	.p2align 4,,15
	.globl	grade_school_mul_32
	.type	grade_school_mul_32, @function
grade_school_mul_32:
.LFB4606:
	.cfi_startproc
	pushq	%r15
	.cfi_def_cfa_offset 16
	.cfi_offset 15, -16
	pushq	%r14
	.cfi_def_cfa_offset 24
	.cfi_offset 14, -24
	movq	%rdi, %r8
	pushq	%r13
	.cfi_def_cfa_offset 32
	.cfi_offset 13, -32
	pushq	%r12
	.cfi_def_cfa_offset 40
	.cfi_offset 12, -40
	leaq	8(%rdi), %rdi
	pushq	%rbp
	.cfi_def_cfa_offset 48
	.cfi_offset 6, -48
	pushq	%rbx
	.cfi_def_cfa_offset 56
	.cfi_offset 3, -56
	movq	%r8, %rcx
	xorl	%eax, %eax
	subq	$120, %rsp
	.cfi_def_cfa_offset 176
	movq	$0, -8(%rdi)
	movq	$0, 496(%rdi)
	andq	$-8, %rdi
	subq	%rdi, %rcx
	addl	$512, %ecx
	shrl	$3, %ecx
	rep stosq
	movq	%rsi, -120(%rsp)
	movq	(%rsi), %rax
	movq	%rax, %rcx
	movq	%rax, %r14
	movq	%rax, %r13
	imulq	(%rdx), %rcx
	movq	%rax, %r12
	movq	%rax, %rbp
	movq	%rax, %rbx
	movq	%rax, %r11
	movq	%rax, %r10
	movq	%rax, %r9
	movq	%rax, %rdi
	movq	%rax, %r15
	addq	%rcx, (%r8)
	movq	%rax, %rcx
	imulq	8(%rdx), %r14
	addq	8(%r8), %r14
	movq	%r14, 8(%r8)
	imulq	16(%rdx), %r13
	addq	16(%r8), %r13
	movq	%r13, 16(%r8)
	imulq	24(%rdx), %r12
	addq	24(%r8), %r12
	movq	%r12, 24(%r8)
	imulq	32(%rdx), %rbp
	addq	32(%r8), %rbp
	movq	%rbp, 32(%r8)
	imulq	40(%rdx), %rbx
	addq	40(%r8), %rbx
	movq	%rbx, 40(%r8)
	imulq	48(%rdx), %r11
	addq	48(%r8), %r11
	movq	%r11, 48(%r8)
	imulq	56(%rdx), %r10
	addq	56(%r8), %r10
	movq	%r10, 56(%r8)
	imulq	64(%rdx), %r9
	addq	64(%r8), %r9
	movq	%r9, 64(%r8)
	imulq	72(%rdx), %rdi
	addq	72(%r8), %rdi
	movq	%rdi, 72(%r8)
	imulq	80(%rdx), %rcx
	movq	%rcx, %rsi
	addq	80(%r8), %rsi
	movq	%rax, %rcx
	movq	%rsi, 80(%r8)
	imulq	88(%rdx), %rcx
	addq	88(%r8), %rcx
	movq	%rcx, 88(%r8)
	imulq	96(%rdx), %r15
	addq	96(%r8), %r15
	movq	%r15, 96(%r8)
	movq	%r15, -112(%rsp)
	movq	%rax, %r15
	imulq	104(%rdx), %r15
	addq	104(%r8), %r15
	movq	%r15, 104(%r8)
	movq	%r15, -104(%rsp)
	movq	%rax, %r15
	imulq	112(%rdx), %r15
	addq	112(%r8), %r15
	movq	%r15, 112(%r8)
	movq	%r15, -96(%rsp)
	movq	%rax, %r15
	imulq	120(%rdx), %r15
	addq	120(%r8), %r15
	movq	%r15, -88(%rsp)
	movq	%r15, 120(%r8)
	movq	%rax, %r15
	imulq	128(%rdx), %r15
	addq	128(%r8), %r15
	movq	%r15, 128(%r8)
	movq	%r15, -80(%rsp)
	movq	%rax, %r15
	imulq	136(%rdx), %r15
	addq	136(%r8), %r15
	movq	%r15, 136(%r8)
	movq	%r15, -72(%rsp)
	movq	%rax, %r15
	imulq	144(%rdx), %r15
	addq	144(%r8), %r15
	movq	%r15, 144(%r8)
	movq	%r15, -64(%rsp)
	movq	%rax, %r15
	imulq	152(%rdx), %r15
	addq	152(%r8), %r15
	movq	%r15, 152(%r8)
	movq	%r15, -56(%rsp)
	movq	%rax, %r15
	imulq	160(%rdx), %r15
	addq	160(%r8), %r15
	movq	%r15, 160(%r8)
	movq	%r15, -48(%rsp)
	movq	%rax, %r15
	imulq	168(%rdx), %r15
	addq	168(%r8), %r15
	movq	%r15, 168(%r8)
	movq	%r15, -40(%rsp)
	movq	%rax, %r15
	imulq	176(%rdx), %r15
	addq	176(%r8), %r15
	movq	%r15, 176(%r8)
	movq	%r15, -32(%rsp)
	movq	%rax, %r15
	imulq	184(%rdx), %r15
	addq	184(%r8), %r15
	movq	%r15, -24(%rsp)
	movq	%r15, 184(%r8)
	movq	%rax, %r15
	imulq	192(%rdx), %r15
	addq	192(%r8), %r15
	movq	%r15, 192(%r8)
	movq	%r15, -16(%rsp)
	movq	%rax, %r15
	imulq	200(%rdx), %r15
	addq	200(%r8), %r15
	movq	%r15, 200(%r8)
	movq	%r15, -8(%rsp)
	movq	%rax, %r15
	imulq	208(%rdx), %r15
	addq	208(%r8), %r15
	movq	%r15, 208(%r8)
	movq	%r15, (%rsp)
	movq	%rax, %r15
	imulq	216(%rdx), %r15
	addq	216(%r8), %r15
	movq	%r15, 216(%r8)
	movq	%r15, 8(%rsp)
	movq	%rax, %r15
	imulq	224(%rdx), %r15
	addq	224(%r8), %r15
	movq	%r15, 224(%r8)
	movq	%r15, 16(%rsp)
	movq	%rax, %r15
	imulq	232(%rdx), %r15
	addq	232(%r8), %r15
	movq	%r15, 232(%r8)
	movq	%r15, 24(%rsp)
	movq	%rax, %r15
	imulq	240(%rdx), %r15
	addq	240(%r8), %r15
	movq	%r15, 240(%r8)
	movq	%r15, 32(%rsp)
	imulq	248(%rdx), %rax
	addq	248(%r8), %rax
	movq	%rax, 40(%rsp)
	movq	%rax, 248(%r8)
	movq	-120(%rsp), %rax
	movq	8(%rax), %rax
	movq	%rax, %r15
	imulq	(%rdx), %r15
	addq	%r15, %r14
	movq	%rax, %r15
	movq	%r14, 8(%r8)
	movq	%rax, %r14
	imulq	8(%rdx), %r14
	addq	%r13, %r14
	movq	%rax, %r13
	movq	%r14, 16(%r8)
	imulq	16(%rdx), %r13
	addq	%r12, %r13
	movq	%rax, %r12
	movq	%r13, 24(%r8)
	imulq	24(%rdx), %r12
	addq	%rbp, %r12
	movq	%rax, %rbp
	movq	%r12, 32(%r8)
	imulq	32(%rdx), %rbp
	addq	%rbx, %rbp
	movq	%rax, %rbx
	movq	%rbp, 40(%r8)
	imulq	40(%rdx), %rbx
	addq	%r11, %rbx
	movq	%rax, %r11
	movq	%rbx, 48(%r8)
	imulq	48(%rdx), %r11
	addq	%r10, %r11
	movq	%rax, %r10
	movq	%r11, 56(%r8)
	imulq	56(%rdx), %r10
	addq	%r9, %r10
	movq	%rax, %r9
	movq	%r10, 64(%r8)
	imulq	64(%rdx), %r9
	addq	%rdi, %r9
	movq	%rax, %rdi
	movq	%r9, 72(%r8)
	imulq	72(%rdx), %rdi
	addq	%rsi, %rdi
	movq	%rax, %rsi
	movq	%rdi, 80(%r8)
	imulq	80(%rdx), %rsi
	addq	%rcx, %rsi
	movq	%rax, %rcx
	movq	%rsi, 88(%r8)
	imulq	88(%rdx), %rcx
	addq	-112(%rsp), %rcx
	movq	%rcx, 96(%r8)
	movq	%rcx, -112(%rsp)
	movq	%rax, %rcx
	imulq	96(%rdx), %rcx
	addq	-104(%rsp), %rcx
	movq	%rcx, -104(%rsp)
	movq	%rcx, 104(%r8)
	movq	%rax, %rcx
	imulq	104(%rdx), %rcx
	addq	-96(%rsp), %rcx
	movq	%rcx, 112(%r8)
	movq	%rcx, -96(%rsp)
	movq	%rax, %rcx
	imulq	112(%rdx), %rcx
	addq	-88(%rsp), %rcx
	movq	%rcx, 120(%r8)
	movq	%rcx, -88(%rsp)
	movq	%rax, %rcx
	imulq	120(%rdx), %rcx
	addq	-80(%rsp), %rcx
	movq	%rcx, 128(%r8)
	movq	%rcx, -80(%rsp)
	movq	%rax, %rcx
	imulq	128(%rdx), %rcx
	addq	-72(%rsp), %rcx
	movq	%rcx, 136(%r8)
	movq	%rcx, -72(%rsp)
	movq	%rax, %rcx
	imulq	136(%rdx), %rcx
	addq	-64(%rsp), %rcx
	movq	%rcx, 144(%r8)
	movq	%rcx, -64(%rsp)
	movq	%rax, %rcx
	imulq	144(%rdx), %rcx
	addq	-56(%rsp), %rcx
	movq	%rcx, 152(%r8)
	movq	%rcx, -56(%rsp)
	movq	%rax, %rcx
	imulq	152(%rdx), %rcx
	addq	-48(%rsp), %rcx
	movq	%rcx, 160(%r8)
	movq	%rcx, -48(%rsp)
	movq	%rax, %rcx
	imulq	160(%rdx), %rcx
	addq	-40(%rsp), %rcx
	movq	%rcx, -40(%rsp)
	movq	%rcx, 168(%r8)
	movq	%rax, %rcx
	imulq	168(%rdx), %rcx
	addq	-32(%rsp), %rcx
	movq	%rcx, 176(%r8)
	movq	%rcx, -32(%rsp)
	movq	%rax, %rcx
	imulq	176(%rdx), %rcx
	addq	-24(%rsp), %rcx
	movq	%rcx, 184(%r8)
	movq	%rcx, -24(%rsp)
	imulq	184(%rdx), %r15
	movq	%r15, %rcx
	addq	-16(%rsp), %rcx
	movq	%rax, %r15
	movq	%rcx, 192(%r8)
	movq	%rcx, -16(%rsp)
	imulq	192(%rdx), %r15
	movq	%r15, %rcx
	addq	-8(%rsp), %rcx
	movq	%rax, %r15
	movq	%rcx, 200(%r8)
	movq	%rcx, -8(%rsp)
	imulq	200(%rdx), %r15
	movq	%r15, %rcx
	addq	(%rsp), %rcx
	movq	%rax, %r15
	movq	%rcx, 208(%r8)
	movq	%rcx, (%rsp)
	imulq	208(%rdx), %r15
	movq	%r15, %rcx
	addq	8(%rsp), %rcx
	movq	%rax, %r15
	movq	%rcx, 216(%r8)
	movq	%rcx, 8(%rsp)
	imulq	216(%rdx), %r15
	movq	%r15, %rcx
	addq	16(%rsp), %rcx
	movq	%rax, %r15
	movq	%rcx, 224(%r8)
	movq	%rcx, 16(%rsp)
	imulq	224(%rdx), %r15
	movq	%r15, %rcx
	addq	24(%rsp), %rcx
	movq	%rax, %r15
	movq	%rcx, 232(%r8)
	movq	%rcx, 24(%rsp)
	imulq	232(%rdx), %r15
	movq	%r15, %rcx
	addq	32(%rsp), %rcx
	movq	%rax, %r15
	movq	%rcx, 240(%r8)
	movq	%rcx, 32(%rsp)
	imulq	240(%rdx), %r15
	movq	%r15, %rcx
	addq	40(%rsp), %rcx
	movq	%rcx, 248(%r8)
	movq	%rcx, 40(%rsp)
	imulq	248(%rdx), %rax
	movq	-120(%rsp), %rcx
	addq	256(%r8), %rax
	movq	%rax, 256(%r8)
	movq	16(%rcx), %rcx
	movq	%rcx, %r15
	imulq	(%rdx), %r15
	addq	%r15, %r14
	movq	%rcx, %r15
	movq	%r14, 16(%r8)
	movq	%rcx, %r14
	imulq	8(%rdx), %r14
	addq	%r13, %r14
	movq	%rcx, %r13
	movq	%r14, 24(%r8)
	imulq	16(%rdx), %r13
	addq	%r12, %r13
	movq	%rcx, %r12
	movq	%r13, 32(%r8)
	imulq	24(%rdx), %r12
	addq	%rbp, %r12
	movq	%rcx, %rbp
	movq	%r12, 40(%r8)
	imulq	32(%rdx), %rbp
	addq	%rbx, %rbp
	movq	%rcx, %rbx
	movq	%rbp, 48(%r8)
	imulq	40(%rdx), %rbx
	addq	%r11, %rbx
	movq	%rcx, %r11
	movq	%rbx, 56(%r8)
	imulq	48(%rdx), %r11
	addq	%r10, %r11
	movq	%rcx, %r10
	movq	%r11, 64(%r8)
	imulq	56(%rdx), %r10
	addq	%r9, %r10
	movq	%rcx, %r9
	movq	%r10, 72(%r8)
	imulq	64(%rdx), %r9
	addq	%rdi, %r9
	movq	%rcx, %rdi
	movq	%r9, 80(%r8)
	imulq	72(%rdx), %rdi
	addq	%rsi, %rdi
	movq	%rcx, %rsi
	movq	%rdi, 88(%r8)
	imulq	80(%rdx), %rsi
	addq	-112(%rsp), %rsi
	movq	%rsi, 96(%r8)
	movq	%rsi, -112(%rsp)
	movq	%rcx, %rsi
	imulq	88(%rdx), %r15
	addq	-104(%rsp), %r15
	movq	%r15, 104(%r8)
	movq	%r15, -104(%rsp)
	imulq	96(%rdx), %rsi
	movq	%rsi, %r15
	addq	-96(%rsp), %r15
	movq	%rcx, %rsi
	movq	%r15, 112(%r8)
	movq	%r15, -96(%rsp)
	movq	%rcx, %r15
	imulq	104(%rdx), %r15
	addq	-88(%rsp), %r15
	movq	%r15, 120(%r8)
	movq	%r15, -88(%rsp)
	movq	%rcx, %r15
	imulq	112(%rdx), %r15
	addq	-80(%rsp), %r15
	movq	%r15, 128(%r8)
	movq	%r15, -80(%rsp)
	movq	%rcx, %r15
	imulq	120(%rdx), %r15
	addq	-72(%rsp), %r15
	movq	%r15, 136(%r8)
	movq	%r15, -72(%rsp)
	movq	%rcx, %r15
	imulq	128(%rdx), %r15
	addq	-64(%rsp), %r15
	movq	%r15, 144(%r8)
	movq	%r15, -64(%rsp)
	imulq	136(%rdx), %rsi
	movq	%rsi, %r15
	addq	-56(%rsp), %r15
	movq	%rcx, %rsi
	movq	%r15, -56(%rsp)
	movq	%r15, 152(%r8)
	movq	%rcx, %r15
	imulq	144(%rdx), %r15
	addq	-48(%rsp), %r15
	movq	%r15, 160(%r8)
	movq	%r15, -48(%rsp)
	movq	%rcx, %r15
	imulq	152(%rdx), %r15
	addq	-40(%rsp), %r15
	movq	%r15, 168(%r8)
	movq	%r15, -40(%rsp)
	imulq	160(%rdx), %rsi
	movq	%rsi, %r15
	addq	-32(%rsp), %r15
	movq	%rcx, %rsi
	movq	%r15, 176(%r8)
	movq	%r15, -32(%rsp)
	movq	%rcx, %r15
	imulq	168(%rdx), %r15
	addq	-24(%rsp), %r15
	movq	%r15, 184(%r8)
	movq	%r15, -24(%rsp)
	movq	%rcx, %r15
	imulq	176(%rdx), %r15
	addq	-16(%rsp), %r15
	movq	%r15, 192(%r8)
	movq	%r15, -16(%rsp)
	movq	%rcx, %r15
	imulq	184(%rdx), %r15
	addq	-8(%rsp), %r15
	movq	%r15, 200(%r8)
	movq	%r15, -8(%rsp)
	imulq	192(%rdx), %rsi
	movq	%rsi, %r15
	addq	(%rsp), %r15
	movq	%rcx, %rsi
	movq	%r15, 208(%r8)
	movq	%r15, (%rsp)
	imulq	200(%rdx), %rsi
	movq	%rsi, %r15
	addq	8(%rsp), %r15
	movq	%rcx, %rsi
	movq	%r15, 8(%rsp)
	movq	%r15, 216(%r8)
	movq	%rcx, %r15
	imulq	208(%rdx), %r15
	addq	16(%rsp), %r15
	movq	%r15, 224(%r8)
	movq	%r15, 16(%rsp)
	movq	%rcx, %r15
	imulq	216(%rdx), %r15
	addq	24(%rsp), %r15
	movq	%r15, 232(%r8)
	movq	%r15, 24(%rsp)
	movq	%rcx, %r15
	imulq	224(%rdx), %r15
	addq	32(%rsp), %r15
	movq	%r15, 240(%r8)
	movq	%r15, 32(%rsp)
	imulq	232(%rdx), %rsi
	addq	40(%rsp), %rsi
	movq	%rsi, 248(%r8)
	movq	%rsi, 40(%rsp)
	movq	%rcx, %rsi
	imulq	240(%rdx), %rsi
	addq	%rsi, %rax
	movq	%rax, 256(%r8)
	movq	%rax, 48(%rsp)
	imulq	248(%rdx), %rcx
	movq	-120(%rsp), %rax
	addq	264(%r8), %rcx
	movq	%rcx, 264(%r8)
	movq	24(%rax), %rax
	movq	%rax, %rsi
	imulq	(%rdx), %rsi
	addq	%rsi, %r14
	movq	%r14, 24(%r8)
	movq	%rax, %r14
	imulq	8(%rdx), %r14
	addq	%r14, %r13
	movq	%rax, %r14
	movq	%r13, 32(%r8)
	imulq	16(%rdx), %r14
	addq	%r14, %r12
	movq	%rax, %r14
	movq	%r12, 40(%r8)
	imulq	24(%rdx), %r14
	addq	%r14, %rbp
	movq	%rax, %r14
	movq	%rbp, 48(%r8)
	imulq	32(%rdx), %r14
	addq	%r14, %rbx
	movq	%rax, %r14
	movq	%rbx, 56(%r8)
	imulq	40(%rdx), %r14
	addq	%r14, %r11
	movq	%rax, %r14
	movq	%r11, 64(%r8)
	imulq	48(%rdx), %r14
	addq	%r14, %r10
	movq	%rax, %r14
	movq	%r10, 72(%r8)
	imulq	56(%rdx), %r14
	addq	%r14, %r9
	movq	%rax, %r14
	movq	%r9, 80(%r8)
	imulq	64(%rdx), %r14
	addq	%r14, %rdi
	movq	%rax, %r14
	movq	%rdi, 88(%r8)
	imulq	72(%rdx), %r14
	movq	%r14, %rsi
	movq	-112(%rsp), %r14
	addq	%rsi, %r14
	movq	%rax, %rsi
	movq	%r14, 96(%r8)
	imulq	80(%rdx), %rsi
	movq	%rsi, %r15
	addq	-104(%rsp), %r15
	movq	%rax, %rsi
	movq	%r15, 104(%r8)
	movq	%r15, -112(%rsp)
	imulq	88(%rdx), %rsi
	movq	%rsi, %r15
	addq	-96(%rsp), %r15
	movq	%rax, %rsi
	movq	%r15, 112(%r8)
	movq	%r15, -104(%rsp)
	imulq	96(%rdx), %rsi
	movq	%rsi, %r15
	addq	-88(%rsp), %r15
	movq	%rax, %rsi
	movq	%r15, 120(%r8)
	movq	%r15, -96(%rsp)
	imulq	104(%rdx), %rsi
	movq	%rsi, %r15
	addq	-80(%rsp), %r15
	movq	%rax, %rsi
	movq	%r15, 128(%r8)
	movq	%r15, -88(%rsp)
	imulq	112(%rdx), %rsi
	movq	%rsi, %r15
	addq	-72(%rsp), %r15
	movq	%rax, %rsi
	movq	%r15, -80(%rsp)
	movq	%r15, 136(%r8)
	imulq	120(%rdx), %rsi
	movq	%rsi, %r15
	addq	-64(%rsp), %r15
	movq	%rax, %rsi
	movq	%r15, 144(%r8)
	movq	%r15, -72(%rsp)
	imulq	128(%rdx), %rsi
	movq	%rsi, %r15
	addq	-56(%rsp), %r15
	movq	%rax, %rsi
	movq	%r15, 152(%r8)
	movq	%r15, -64(%rsp)
	imulq	136(%rdx), %rsi
	movq	%rsi, %r15
	addq	-48(%rsp), %r15
	movq	%rax, %rsi
	movq	%r15, 160(%r8)
	movq	%r15, -56(%rsp)
	imulq	144(%rdx), %rsi
	movq	%rsi, %r15
	addq	-40(%rsp), %r15
	movq	%rax, %rsi
	movq	%r15, 168(%r8)
	movq	%r15, -48(%rsp)
	imulq	152(%rdx), %rsi
	movq	%rsi, %r15
	addq	-32(%rsp), %r15
	movq	%rax, %rsi
	movq	%r15, 176(%r8)
	movq	%r15, -40(%rsp)
	imulq	160(%rdx), %rsi
	movq	%rsi, %r15
	addq	-24(%rsp), %r15
	movq	%rax, %rsi
	movq	%r15, 184(%r8)
	movq	%r15, -32(%rsp)
	imulq	168(%rdx), %rsi
	movq	%rsi, %r15
	addq	-16(%rsp), %r15
	movq	%rax, %rsi
	movq	%r15, 192(%r8)
	movq	%r15, -24(%rsp)
	imulq	176(%rdx), %rsi
	movq	%rsi, %r15
	addq	-8(%rsp), %r15
	movq	%rax, %rsi
	movq	%r15, -16(%rsp)
	movq	%r15, 200(%r8)
	imulq	184(%rdx), %rsi
	movq	%rsi, %r15
	addq	(%rsp), %r15
	movq	%rax, %rsi
	movq	%r15, 208(%r8)
	movq	%r15, -8(%rsp)
	imulq	192(%rdx), %rsi
	movq	%rsi, %r15
	addq	8(%rsp), %r15
	movq	%rax, %rsi
	movq	%r15, 216(%r8)
	movq	%r15, (%rsp)
	imulq	200(%rdx), %rsi
	movq	%rsi, %r15
	addq	16(%rsp), %r15
	movq	%rax, %rsi
	movq	%r15, 224(%r8)
	movq	%r15, 8(%rsp)
	imulq	208(%rdx), %rsi
	movq	%rsi, %r15
	addq	24(%rsp), %r15
	movq	%rax, %rsi
	movq	%r15, 232(%r8)
	movq	%r15, 16(%rsp)
	imulq	216(%rdx), %rsi
	movq	%rsi, %r15
	addq	32(%rsp), %r15
	movq	%rax, %rsi
	movq	%r15, 240(%r8)
	movq	%r15, 24(%rsp)
	imulq	224(%rdx), %rsi
	addq	40(%rsp), %rsi
	movq	%rsi, 248(%r8)
	movq	%rsi, 32(%rsp)
	movq	%rax, %rsi
	imulq	232(%rdx), %rsi
	addq	48(%rsp), %rsi
	movq	%rsi, 256(%r8)
	movq	%rsi, 40(%rsp)
	movq	%rax, %rsi
	imulq	240(%rdx), %rsi
	addq	%rsi, %rcx
	movq	%rcx, 264(%r8)
	movq	%rcx, 48(%rsp)
	imulq	248(%rdx), %rax
	addq	272(%r8), %rax
	movq	-120(%rsp), %rcx
	movq	%rax, 272(%r8)
	movq	32(%rcx), %rcx
	movq	%rcx, %rsi
	movq	%rcx, %r15
	imulq	(%rdx), %rsi
	addq	%rsi, %r13
	movq	-112(%rsp), %rsi
	movq	%r13, 32(%r8)
	movq	%rcx, %r13
	imulq	8(%rdx), %r13
	addq	%r13, %r12
	movq	%rcx, %r13
	movq	%r12, 40(%r8)
	imulq	16(%rdx), %r13
	addq	%r13, %rbp
	movq	%rcx, %r13
	movq	%rbp, 48(%r8)
	imulq	24(%rdx), %r13
	addq	%r13, %rbx
	movq	%rcx, %r13
	movq	%rbx, 56(%r8)
	imulq	32(%rdx), %r13
	addq	%r13, %r11
	movq	%rcx, %r13
	movq	%r11, 64(%r8)
	imulq	40(%rdx), %r13
	addq	%r13, %r10
	movq	%rcx, %r13
	movq	%r10, 72(%r8)
	imulq	48(%rdx), %r13
	addq	%r13, %r9
	movq	%rcx, %r13
	movq	%r9, 80(%r8)
	imulq	56(%rdx), %r13
	addq	%r13, %rdi
	movq	%rcx, %r13
	movq	%rdi, 88(%r8)
	imulq	64(%rdx), %r13
	addq	%r13, %r14
	movq	%rcx, %r13
	movq	%r14, 96(%r8)
	imulq	72(%rdx), %r13
	leaq	0(%r13,%rsi), %r13
	movq	%r13, 104(%r8)
	imulq	80(%rdx), %r15
	addq	-104(%rsp), %r15
	movq	%r15, -112(%rsp)
	movq	%r15, 112(%r8)
	movq	%rcx, %r15
	imulq	88(%rdx), %r15
	addq	-96(%rsp), %r15
	movq	%r15, -104(%rsp)
	movq	%r15, 120(%r8)
	movq	%rcx, %r15
	imulq	96(%rdx), %r15
	addq	-88(%rsp), %r15
	movq	%r15, 128(%r8)
	movq	%r15, -96(%rsp)
	movq	%rcx, %r15
	imulq	104(%rdx), %r15
	addq	-80(%rsp), %r15
	movq	%r15, 136(%r8)
	movq	%r15, -88(%rsp)
	movq	%rcx, %r15
	imulq	112(%rdx), %r15
	addq	-72(%rsp), %r15
	movq	%r15, 144(%r8)
	movq	%r15, -80(%rsp)
	movq	%rcx, %r15
	imulq	120(%rdx), %r15
	addq	-64(%rsp), %r15
	movq	%r15, 152(%r8)
	movq	%r15, -72(%rsp)
	movq	%rcx, %r15
	imulq	128(%rdx), %r15
	addq	-56(%rsp), %r15
	movq	%r15, 160(%r8)
	movq	%r15, -64(%rsp)
	movq	%rcx, %r15
	imulq	136(%rdx), %r15
	addq	-48(%rsp), %r15
	movq	%r15, 168(%r8)
	movq	%r15, -56(%rsp)
	movq	%rcx, %r15
	imulq	144(%rdx), %r15
	addq	-40(%rsp), %r15
	movq	%r15, -48(%rsp)
	movq	%r15, 176(%r8)
	movq	%rcx, %r15
	imulq	152(%rdx), %r15
	addq	-32(%rsp), %r15
	movq	%r15, -40(%rsp)
	movq	%r15, 184(%r8)
	movq	%rcx, %r15
	imulq	160(%rdx), %r15
	addq	-24(%rsp), %r15
	movq	%r15, 192(%r8)
	movq	%r15, -32(%rsp)
	movq	%rcx, %r15
	imulq	168(%rdx), %r15
	addq	-16(%rsp), %r15
	movq	%r15, 200(%r8)
	movq	%r15, -24(%rsp)
	movq	%rcx, %r15
	imulq	176(%rdx), %r15
	addq	-8(%rsp), %r15
	movq	%r15, 208(%r8)
	movq	%r15, -16(%rsp)
	movq	%rcx, %r15
	imulq	184(%rdx), %r15
	addq	(%rsp), %r15
	movq	%r15, 216(%r8)
	movq	%r15, -8(%rsp)
	movq	%rcx, %r15
	imulq	192(%rdx), %r15
	addq	8(%rsp), %r15
	movq	%r15, 224(%r8)
	movq	%r15, (%rsp)
	movq	%rcx, %r15
	imulq	200(%rdx), %r15
	addq	16(%rsp), %r15
	movq	%r15, 232(%r8)
	movq	%r15, 8(%rsp)
	movq	%rcx, %r15
	imulq	208(%rdx), %r15
	addq	24(%rsp), %r15
	movq	%r15, 16(%rsp)
	movq	%r15, 240(%r8)
	movq	%rcx, %r15
	imulq	216(%rdx), %r15
	movq	%r15, %rsi
	addq	32(%rsp), %rsi
	movq	%rcx, %r15
	movq	%rsi, 24(%rsp)
	movq	%rsi, 248(%r8)
	imulq	224(%rdx), %r15
	movq	%r15, %rsi
	addq	40(%rsp), %rsi
	movq	%rcx, %r15
	movq	%rsi, 256(%r8)
	movq	%rsi, 32(%rsp)
	movq	%rcx, %rsi
	imulq	232(%rdx), %r15
	addq	48(%rsp), %r15
	movq	%r15, 264(%r8)
	movq	%r15, 40(%rsp)
	imulq	240(%rdx), %rsi
	addq	%rsi, %rax
	movq	%rax, 272(%r8)
	movq	%rax, 48(%rsp)
	imulq	248(%rdx), %rcx
	movq	-120(%rsp), %rax
	addq	280(%r8), %rcx
	movq	%rcx, 280(%r8)
	movq	40(%rax), %rax
	movq	%rax, %rsi
	imulq	(%rdx), %rsi
	addq	%rsi, %r12
	movq	%r12, 40(%r8)
	movq	%rax, %r12
	imulq	8(%rdx), %r12
	addq	%r12, %rbp
	movq	%rax, %r12
	movq	%rbp, 48(%r8)
	imulq	16(%rdx), %r12
	addq	%r12, %rbx
	movq	%rax, %r12
	movq	%rbx, 56(%r8)
	imulq	24(%rdx), %r12
	addq	%r12, %r11
	movq	%rax, %r12
	movq	%r11, 64(%r8)
	imulq	32(%rdx), %r12
	addq	%r12, %r10
	movq	%rax, %r12
	movq	%r10, 72(%r8)
	imulq	40(%rdx), %r12
	addq	%r12, %r9
	movq	%rax, %r12
	movq	%r9, 80(%r8)
	imulq	48(%rdx), %r12
	addq	%r12, %rdi
	movq	%rax, %r12
	movq	%rdi, 88(%r8)
	imulq	56(%rdx), %r12
	addq	%r12, %r14
	movq	%rax, %r12
	movq	%r14, 96(%r8)
	imulq	64(%rdx), %r12
	movq	-112(%rsp), %rsi
	addq	%r12, %r13
	movq	%rax, %r12
	movq	%r13, 104(%r8)
	imulq	72(%rdx), %r12
	leaq	(%r12,%rsi), %r12
	movq	%rax, %rsi
	movq	%r12, 112(%r8)
	imulq	80(%rdx), %rsi
	movq	%rsi, %r15
	addq	-104(%rsp), %r15
	movq	%rax, %rsi
	movq	%r15, 120(%r8)
	movq	%r15, -112(%rsp)
	imulq	88(%rdx), %rsi
	movq	%rsi, %r15
	addq	-96(%rsp), %r15
	movq	%rax, %rsi
	movq	%r15, 128(%r8)
	movq	%r15, -104(%rsp)
	imulq	96(%rdx), %rsi
	movq	%rsi, %r15
	addq	-88(%rsp), %r15
	movq	%rax, %rsi
	movq	%r15, 136(%r8)
	movq	%r15, -96(%rsp)
	imulq	104(%rdx), %rsi
	movq	%rsi, %r15
	addq	-80(%rsp), %r15
	movq	%rax, %rsi
	movq	%r15, 144(%r8)
	movq	%r15, -88(%rsp)
	imulq	112(%rdx), %rsi
	movq	%rsi, %r15
	addq	-72(%rsp), %r15
	movq	%rax, %rsi
	movq	%r15, 152(%r8)
	movq	%r15, -80(%rsp)
	imulq	120(%rdx), %rsi
	movq	%rsi, %r15
	addq	-64(%rsp), %r15
	movq	%rax, %rsi
	movq	%r15, 160(%r8)
	movq	%r15, -72(%rsp)
	imulq	128(%rdx), %rsi
	movq	%rsi, %r15
	addq	-56(%rsp), %r15
	movq	%rax, %rsi
	movq	%r15, -64(%rsp)
	movq	%r15, 168(%r8)
	imulq	136(%rdx), %rsi
	movq	%rsi, %r15
	addq	-48(%rsp), %r15
	movq	%rax, %rsi
	movq	%r15, 176(%r8)
	movq	%r15, -56(%rsp)
	imulq	144(%rdx), %rsi
	movq	%rsi, %r15
	addq	-40(%rsp), %r15
	movq	%rax, %rsi
	movq	%r15, 184(%r8)
	movq	%r15, -48(%rsp)
	imulq	152(%rdx), %rsi
	movq	%rsi, %r15
	addq	-32(%rsp), %r15
	movq	%rax, %rsi
	movq	%r15, 192(%r8)
	movq	%r15, -40(%rsp)
	imulq	160(%rdx), %rsi
	movq	%rsi, %r15
	addq	-24(%rsp), %r15
	movq	%rax, %rsi
	movq	%r15, 200(%r8)
	movq	%r15, -32(%rsp)
	imulq	168(%rdx), %rsi
	movq	%rsi, %r15
	addq	-16(%rsp), %r15
	movq	%rax, %rsi
	movq	%r15, 208(%r8)
	movq	%r15, -24(%rsp)
	imulq	176(%rdx), %rsi
	movq	%rsi, %r15
	addq	-8(%rsp), %r15
	movq	%rax, %rsi
	movq	%r15, 216(%r8)
	movq	%r15, -16(%rsp)
	imulq	184(%rdx), %rsi
	movq	%rsi, %r15
	addq	(%rsp), %r15
	movq	%rax, %rsi
	movq	%r15, 224(%r8)
	movq	%r15, -8(%rsp)
	imulq	192(%rdx), %rsi
	movq	%rsi, %r15
	addq	8(%rsp), %r15
	movq	%rax, %rsi
	movq	%r15, (%rsp)
	movq	%r15, 232(%r8)
	imulq	200(%rdx), %rsi
	movq	%rsi, %r15
	addq	16(%rsp), %r15
	movq	%rax, %rsi
	movq	%r15, 240(%r8)
	movq	%r15, 8(%rsp)
	imulq	208(%rdx), %rsi
	addq	24(%rsp), %rsi
	movq	%rsi, 248(%r8)
	movq	%rsi, 16(%rsp)
	movq	%rax, %rsi
	imulq	216(%rdx), %rsi
	addq	32(%rsp), %rsi
	movq	%rsi, 256(%r8)
	movq	%rsi, 24(%rsp)
	movq	%rax, %rsi
	imulq	224(%rdx), %rsi
	addq	40(%rsp), %rsi
	movq	%rsi, 264(%r8)
	movq	%rsi, 32(%rsp)
	movq	%rax, %rsi
	imulq	232(%rdx), %rsi
	addq	48(%rsp), %rsi
	movq	%rsi, 272(%r8)
	movq	%rsi, 40(%rsp)
	movq	%rax, %rsi
	imulq	240(%rdx), %rsi
	addq	%rsi, %rcx
	movq	%rcx, 280(%r8)
	movq	%rcx, 48(%rsp)
	imulq	248(%rdx), %rax
	movq	-120(%rsp), %rcx
	addq	288(%r8), %rax
	movq	%rax, 288(%r8)
	movq	48(%rcx), %rcx
	movq	%rcx, %rsi
	imulq	(%rdx), %rsi
	addq	%rsi, %rbp
	movq	%rbp, 48(%r8)
	movq	%rcx, %rbp
	imulq	8(%rdx), %rbp
	addq	%rbp, %rbx
	movq	%rcx, %rbp
	movq	%rbx, 56(%r8)
	imulq	16(%rdx), %rbp
	movq	-112(%rsp), %rsi
	addq	%rbp, %r11
	movq	%rcx, %rbp
	movq	%r11, 64(%r8)
	imulq	24(%rdx), %rbp
	addq	%rbp, %r10
	movq	%rcx, %rbp
	movq	%r10, 72(%r8)
	imulq	32(%rdx), %rbp
	addq	%rbp, %r9
	movq	%rcx, %rbp
	movq	%r9, 80(%r8)
	imulq	40(%rdx), %rbp
	addq	%rbp, %rdi
	movq	%rcx, %rbp
	movq	%rdi, 88(%r8)
	imulq	48(%rdx), %rbp
	addq	%rbp, %r14
	movq	%rcx, %rbp
	movq	%r14, 96(%r8)
	imulq	56(%rdx), %rbp
	addq	%rbp, %r13
	movq	%rcx, %rbp
	movq	%r13, 104(%r8)
	imulq	64(%rdx), %rbp
	addq	%rbp, %r12
	movq	%rcx, %rbp
	movq	%r12, 112(%r8)
	imulq	72(%rdx), %rbp
	leaq	0(%rbp,%rsi), %rbp
	movq	%rcx, %rsi
	movq	%rbp, 120(%r8)
	imulq	80(%rdx), %rsi
	movq	%rsi, %r15
	addq	-104(%rsp), %r15
	movq	%rcx, %rsi
	movq	%r15, 128(%r8)
	movq	%r15, -112(%rsp)
	imulq	88(%rdx), %rsi
	movq	%rsi, %r15
	addq	-96(%rsp), %r15
	movq	%rcx, %rsi
	movq	%r15, 136(%r8)
	movq	%r15, -104(%rsp)
	imulq	96(%rdx), %rsi
	movq	%rsi, %r15
	addq	-88(%rsp), %r15
	movq	%rcx, %rsi
	movq	%r15, 144(%r8)
	movq	%r15, -96(%rsp)
	imulq	104(%rdx), %rsi
	movq	%rsi, %r15
	addq	-80(%rsp), %r15
	movq	%rcx, %rsi
	movq	%r15, -88(%rsp)
	movq	%r15, 152(%r8)
	imulq	112(%rdx), %rsi
	movq	%rsi, %r15
	addq	-72(%rsp), %r15
	movq	%rcx, %rsi
	movq	%r15, 160(%r8)
	movq	%r15, -80(%rsp)
	imulq	120(%rdx), %rsi
	movq	%rsi, %r15
	addq	-64(%rsp), %r15
	movq	%rcx, %rsi
	movq	%r15, 168(%r8)
	movq	%r15, -72(%rsp)
	imulq	128(%rdx), %rsi
	movq	%rsi, %r15
	addq	-56(%rsp), %r15
	movq	%rcx, %rsi
	movq	%r15, 176(%r8)
	movq	%r15, -64(%rsp)
	imulq	136(%rdx), %rsi
	movq	%rsi, %r15
	addq	-48(%rsp), %r15
	movq	%rcx, %rsi
	movq	%r15, 184(%r8)
	movq	%r15, -56(%rsp)
	imulq	144(%rdx), %rsi
	movq	%rsi, %r15
	addq	-40(%rsp), %r15
	movq	%rcx, %rsi
	movq	%r15, 192(%r8)
	movq	%r15, -48(%rsp)
	imulq	152(%rdx), %rsi
	movq	%rsi, %r15
	addq	-32(%rsp), %r15
	movq	%rcx, %rsi
	movq	%r15, 200(%r8)
	movq	%r15, -40(%rsp)
	imulq	160(%rdx), %rsi
	movq	%rsi, %r15
	addq	-24(%rsp), %r15
	movq	%rcx, %rsi
	movq	%r15, 208(%r8)
	movq	%r15, -32(%rsp)
	imulq	168(%rdx), %rsi
	movq	%rsi, %r15
	addq	-16(%rsp), %r15
	movq	%rcx, %rsi
	movq	%r15, -24(%rsp)
	movq	%r15, 216(%r8)
	imulq	176(%rdx), %rsi
	movq	%rsi, %r15
	addq	-8(%rsp), %r15
	movq	%rcx, %rsi
	movq	%r15, 224(%r8)
	movq	%r15, -16(%rsp)
	imulq	184(%rdx), %rsi
	movq	%rsi, %r15
	addq	(%rsp), %r15
	movq	%rcx, %rsi
	movq	%r15, 232(%r8)
	movq	%r15, -8(%rsp)
	imulq	192(%rdx), %rsi
	movq	%rsi, %r15
	addq	8(%rsp), %r15
	movq	%rcx, %rsi
	movq	%r15, 240(%r8)
	movq	%r15, (%rsp)
	imulq	200(%rdx), %rsi
	addq	16(%rsp), %rsi
	movq	%rsi, 248(%r8)
	movq	%rsi, 8(%rsp)
	movq	%rcx, %rsi
	imulq	208(%rdx), %rsi
	addq	24(%rsp), %rsi
	movq	%rsi, 256(%r8)
	movq	%rsi, 16(%rsp)
	movq	%rcx, %rsi
	imulq	216(%rdx), %rsi
	addq	32(%rsp), %rsi
	movq	%rsi, 264(%r8)
	movq	%rsi, 24(%rsp)
	movq	%rcx, %rsi
	imulq	224(%rdx), %rsi
	addq	40(%rsp), %rsi
	movq	%rsi, 32(%rsp)
	movq	%rsi, 272(%r8)
	movq	%rcx, %rsi
	imulq	232(%rdx), %rsi
	addq	48(%rsp), %rsi
	movq	%rsi, 40(%rsp)
	movq	%rsi, 280(%r8)
	movq	%rcx, %rsi
	imulq	240(%rdx), %rsi
	addq	%rsi, %rax
	movq	%rax, 288(%r8)
	movq	%rax, 48(%rsp)
	imulq	248(%rdx), %rcx
	movq	-120(%rsp), %rax
	addq	296(%r8), %rcx
	movq	%rcx, 296(%r8)
	movq	56(%rax), %rax
	movq	%rax, %rsi
	imulq	(%rdx), %rsi
	addq	%rbx, %rsi
	movq	%rax, %rbx
	movq	%rsi, 56(%r8)
	movq	-112(%rsp), %rsi
	imulq	8(%rdx), %rbx
	addq	%rbx, %r11
	movq	%rax, %rbx
	movq	%r11, 64(%r8)
	imulq	16(%rdx), %rbx
	addq	%rbx, %r10
	movq	%rax, %rbx
	movq	%r10, 72(%r8)
	imulq	24(%rdx), %rbx
	addq	%rbx, %r9
	movq	%rax, %rbx
	movq	%r9, 80(%r8)
	imulq	32(%rdx), %rbx
	addq	%rbx, %rdi
	movq	%rax, %rbx
	movq	%rdi, 88(%r8)
	imulq	40(%rdx), %rbx
	addq	%rbx, %r14
	movq	%rax, %rbx
	movq	%r14, 96(%r8)
	imulq	48(%rdx), %rbx
	addq	%rbx, %r13
	movq	%rax, %rbx
	movq	%r13, 104(%r8)
	imulq	56(%rdx), %rbx
	addq	%rbx, %r12
	movq	%rax, %rbx
	movq	%r12, 112(%r8)
	imulq	64(%rdx), %rbx
	addq	%rbx, %rbp
	movq	%rax, %rbx
	movq	%rbp, 120(%r8)
	imulq	72(%rdx), %rbx
	leaq	(%rbx,%rsi), %rbx
	movq	%rax, %rsi
	movq	%rbx, 128(%r8)
	imulq	80(%rdx), %rsi
	movq	%rsi, %r15
	addq	-104(%rsp), %r15
	movq	%rax, %rsi
	movq	%r15, -112(%rsp)
	movq	%r15, 136(%r8)
	imulq	88(%rdx), %rsi
	movq	%rsi, %r15
	addq	-96(%rsp), %r15
	movq	%rax, %rsi
	movq	%r15, 144(%r8)
	movq	%r15, -104(%rsp)
	imulq	96(%rdx), %rsi
	movq	%rsi, %r15
	addq	-88(%rsp), %r15
	movq	%rax, %rsi
	movq	%r15, 152(%r8)
	movq	%r15, -96(%rsp)
	imulq	104(%rdx), %rsi
	movq	%rsi, %r15
	addq	-80(%rsp), %r15
	movq	%rax, %rsi
	movq	%r15, 160(%r8)
	movq	%r15, -88(%rsp)
	imulq	112(%rdx), %rsi
	movq	%rsi, %r15
	addq	-72(%rsp), %r15
	movq	%rax, %rsi
	movq	%r15, 168(%r8)
	movq	%r15, -80(%rsp)
	imulq	120(%rdx), %rsi
	movq	%rsi, %r15
	addq	-64(%rsp), %r15
	movq	%rax, %rsi
	movq	%r15, 176(%r8)
	movq	%r15, -72(%rsp)
	imulq	128(%rdx), %rsi
	movq	%rsi, %r15
	addq	-56(%rsp), %r15
	movq	%rax, %rsi
	movq	%r15, 184(%r8)
	movq	%r15, -64(%rsp)
	imulq	136(%rdx), %rsi
	movq	%rsi, %r15
	addq	-48(%rsp), %r15
	movq	%rax, %rsi
	movq	%r15, 192(%r8)
	movq	%r15, -56(%rsp)
	imulq	144(%rdx), %rsi
	movq	%rsi, %r15
	addq	-40(%rsp), %r15
	movq	%rax, %rsi
	movq	%r15, -48(%rsp)
	movq	%r15, 200(%r8)
	imulq	152(%rdx), %rsi
	movq	%rsi, %r15
	addq	-32(%rsp), %r15
	movq	%rax, %rsi
	movq	%r15, 208(%r8)
	movq	%r15, -40(%rsp)
	imulq	160(%rdx), %rsi
	movq	%rsi, %r15
	addq	-24(%rsp), %r15
	movq	%rax, %rsi
	movq	%r15, 216(%r8)
	movq	%r15, -32(%rsp)
	imulq	168(%rdx), %rsi
	movq	%rsi, %r15
	addq	-16(%rsp), %r15
	movq	%rax, %rsi
	movq	%r15, 224(%r8)
	movq	%r15, -24(%rsp)
	imulq	176(%rdx), %rsi
	movq	%rsi, %r15
	addq	-8(%rsp), %r15
	movq	%rax, %rsi
	movq	%r15, 232(%r8)
	movq	%r15, -16(%rsp)
	imulq	184(%rdx), %rsi
	movq	%rsi, %r15
	addq	(%rsp), %r15
	movq	%rax, %rsi
	movq	%r15, 240(%r8)
	movq	%r15, -8(%rsp)
	imulq	192(%rdx), %rsi
	addq	8(%rsp), %rsi
	movq	%rsi, 248(%r8)
	movq	%rsi, (%rsp)
	movq	%rax, %rsi
	imulq	200(%rdx), %rsi
	addq	16(%rsp), %rsi
	movq	%rsi, 8(%rsp)
	movq	%rsi, 256(%r8)
	movq	%rax, %rsi
	imulq	208(%rdx), %rsi
	addq	24(%rsp), %rsi
	movq	%rsi, 16(%rsp)
	movq	%rsi, 264(%r8)
	movq	%rax, %rsi
	imulq	216(%rdx), %rsi
	addq	32(%rsp), %rsi
	movq	%rsi, 272(%r8)
	movq	%rsi, 24(%rsp)
	movq	%rax, %rsi
	imulq	224(%rdx), %rsi
	addq	40(%rsp), %rsi
	movq	%rsi, 280(%r8)
	movq	%rsi, 32(%rsp)
	movq	%rax, %rsi
	imulq	232(%rdx), %rsi
	addq	48(%rsp), %rsi
	movq	%rsi, 288(%r8)
	movq	%rsi, 40(%rsp)
	movq	%rax, %rsi
	imulq	240(%rdx), %rsi
	addq	%rsi, %rcx
	movq	%rcx, 296(%r8)
	movq	%rcx, 48(%rsp)
	imulq	248(%rdx), %rax
	movq	-120(%rsp), %rcx
	addq	304(%r8), %rax
	movq	%rax, 304(%r8)
	movq	64(%rcx), %rcx
	movq	%rcx, %rsi
	imulq	(%rdx), %rsi
	addq	%r11, %rsi
	movq	%rcx, %r11
	movq	%rsi, 64(%r8)
	imulq	8(%rdx), %r11
	addq	%r11, %r10
	movq	%rcx, %r11
	movq	%r10, 72(%r8)
	imulq	16(%rdx), %r11
	addq	%r11, %r9
	movq	%rcx, %r11
	movq	%r9, 80(%r8)
	imulq	24(%rdx), %r11
	addq	%r11, %rdi
	movq	%rcx, %r11
	movq	%rdi, 88(%r8)
	imulq	32(%rdx), %r11
	addq	%r11, %r14
	movq	%rcx, %r11
	movq	%r14, 96(%r8)
	imulq	40(%rdx), %r11
	addq	%r11, %r13
	movq	%rcx, %r11
	movq	%r13, 104(%r8)
	imulq	48(%rdx), %r11
	movq	-112(%rsp), %rsi
	addq	%r11, %r12
	movq	%rcx, %r11
	movq	%r12, 112(%r8)
	imulq	56(%rdx), %r11
	addq	%r11, %rbp
	movq	%rcx, %r11
	movq	%rbp, 120(%r8)
	imulq	64(%rdx), %r11
	addq	%r11, %rbx
	movq	%rcx, %r11
	movq	%rbx, 128(%r8)
	imulq	72(%rdx), %r11
	leaq	(%r11,%rsi), %r11
	movq	%rcx, %rsi
	movq	%r11, 136(%r8)
	imulq	80(%rdx), %rsi
	movq	%rsi, %r15
	addq	-104(%rsp), %r15
	movq	%rcx, %rsi
	movq	%r15, 144(%r8)
	movq	%r15, -112(%rsp)
	imulq	88(%rdx), %rsi
	movq	%rsi, %r15
	addq	-96(%rsp), %r15
	movq	%rcx, %rsi
	movq	%r15, 152(%r8)
	movq	%r15, -104(%rsp)
	imulq	96(%rdx), %rsi
	movq	%rsi, %r15
	addq	-88(%rsp), %r15
	movq	%rcx, %rsi
	movq	%r15, 160(%r8)
	movq	%r15, -96(%rsp)
	imulq	104(%rdx), %rsi
	movq	%rsi, %r15
	addq	-80(%rsp), %r15
	movq	%r15, 168(%r8)
	movq	%r15, -88(%rsp)
	movq	%rcx, %r15
	imulq	112(%rdx), %r15
	addq	-72(%rsp), %r15
	movq	%r15, -80(%rsp)
	movq	%r15, 176(%r8)
	movq	%rcx, %r15
	imulq	120(%rdx), %r15
	addq	-64(%rsp), %r15
	movq	%r15, -72(%rsp)
	movq	%r15, 184(%r8)
	movq	%rcx, %r15
	imulq	128(%rdx), %r15
	addq	-56(%rsp), %r15
	movq	%r15, 192(%r8)
	movq	%r15, -64(%rsp)
	movq	%rcx, %r15
	imulq	136(%rdx), %r15
	addq	-48(%rsp), %r15
	movq	%r15, 200(%r8)
	movq	%r15, -56(%rsp)
	movq	%rcx, %r15
	imulq	144(%rdx), %r15
	addq	-40(%rsp), %r15
	movq	%r15, 208(%r8)
	movq	%r15, -48(%rsp)
	movq	%rcx, %r15
	imulq	152(%rdx), %r15
	addq	-32(%rsp), %r15
	movq	%r15, 216(%r8)
	movq	%r15, -40(%rsp)
	movq	%rcx, %r15
	imulq	160(%rdx), %r15
	addq	-24(%rsp), %r15
	movq	%r15, 224(%r8)
	movq	%r15, -32(%rsp)
	movq	%rcx, %r15
	imulq	168(%rdx), %r15
	addq	-16(%rsp), %r15
	movq	%r15, 232(%r8)
	movq	%r15, -24(%rsp)
	movq	%rcx, %r15
	imulq	176(%rdx), %r15
	addq	-8(%rsp), %r15
	movq	%r15, -16(%rsp)
	movq	%r15, 240(%r8)
	movq	%rcx, %r15
	imulq	184(%rdx), %r15
	movq	%r15, %rsi
	addq	(%rsp), %rsi
	movq	%rcx, %r15
	movq	%rsi, -8(%rsp)
	movq	%rsi, 248(%r8)
	imulq	192(%rdx), %r15
	movq	%r15, %rsi
	addq	8(%rsp), %rsi
	movq	%rcx, %r15
	movq	%rsi, 256(%r8)
	movq	%rsi, (%rsp)
	imulq	200(%rdx), %r15
	movq	%r15, %rsi
	addq	16(%rsp), %rsi
	movq	%rcx, %r15
	movq	%rsi, 264(%r8)
	movq	%rsi, 8(%rsp)
	imulq	208(%rdx), %r15
	movq	%r15, %rsi
	addq	24(%rsp), %rsi
	movq	%rcx, %r15
	movq	%rsi, 272(%r8)
	movq	%rsi, 16(%rsp)
	imulq	216(%rdx), %r15
	movq	%r15, %rsi
	addq	32(%rsp), %rsi
	movq	%rcx, %r15
	movq	%rsi, 280(%r8)
	movq	%rsi, 24(%rsp)
	imulq	224(%rdx), %r15
	movq	%r15, %rsi
	addq	40(%rsp), %rsi
	movq	%rcx, %r15
	movq	%rsi, 288(%r8)
	movq	%rsi, 32(%rsp)
	movq	%rcx, %rsi
	imulq	232(%rdx), %r15
	addq	48(%rsp), %r15
	movq	%r15, 296(%r8)
	movq	%r15, 40(%rsp)
	imulq	240(%rdx), %rsi
	addq	%rsi, %rax
	movq	%rax, 304(%r8)
	movq	%rax, 48(%rsp)
	imulq	248(%rdx), %rcx
	movq	-120(%rsp), %rax
	addq	312(%r8), %rcx
	movq	%rcx, 312(%r8)
	movq	72(%rax), %rax
	movq	%rax, %rsi
	imulq	(%rdx), %rsi
	addq	%r10, %rsi
	movq	%rax, %r10
	movq	%rsi, 72(%r8)
	movq	-112(%rsp), %rsi
	imulq	8(%rdx), %r10
	addq	%r10, %r9
	movq	%rax, %r10
	movq	%r9, 80(%r8)
	imulq	16(%rdx), %r10
	addq	%r10, %rdi
	movq	%rax, %r10
	movq	%rdi, 88(%r8)
	imulq	24(%rdx), %r10
	addq	%r10, %r14
	movq	%rax, %r10
	movq	%r14, 96(%r8)
	imulq	32(%rdx), %r10
	addq	%r10, %r13
	movq	%rax, %r10
	movq	%r13, 104(%r8)
	imulq	40(%rdx), %r10
	addq	%r10, %r12
	movq	%rax, %r10
	movq	%r12, 112(%r8)
	imulq	48(%rdx), %r10
	addq	%r10, %rbp
	movq	%rax, %r10
	movq	%rbp, 120(%r8)
	imulq	56(%rdx), %r10
	addq	%r10, %rbx
	movq	%rax, %r10
	movq	%rbx, 128(%r8)
	imulq	64(%rdx), %r10
	addq	%r10, %r11
	movq	%rax, %r10
	movq	%r11, 136(%r8)
	imulq	72(%rdx), %r10
	leaq	(%r10,%rsi), %r10
	movq	%rax, %rsi
	movq	%r10, 144(%r8)
	imulq	80(%rdx), %rsi
	movq	%rsi, %r15
	addq	-104(%rsp), %r15
	movq	%rax, %rsi
	movq	%r15, 152(%r8)
	movq	%r15, -112(%rsp)
	imulq	88(%rdx), %rsi
	movq	%rsi, %r15
	addq	-96(%rsp), %r15
	movq	%rax, %rsi
	movq	%r15, 160(%r8)
	movq	%r15, -104(%rsp)
	imulq	96(%rdx), %rsi
	movq	%rsi, %r15
	addq	-88(%rsp), %r15
	movq	%rax, %rsi
	movq	%r15, -96(%rsp)
	movq	%r15, 168(%r8)
	imulq	104(%rdx), %rsi
	movq	%rsi, %r15
	addq	-80(%rsp), %r15
	movq	%rax, %rsi
	movq	%r15, 176(%r8)
	movq	%r15, -88(%rsp)
	imulq	112(%rdx), %rsi
	movq	%rsi, %r15
	addq	-72(%rsp), %r15
	movq	%rax, %rsi
	movq	%r15, 184(%r8)
	movq	%r15, -80(%rsp)
	imulq	120(%rdx), %rsi
	movq	%rsi, %r15
	addq	-64(%rsp), %r15
	movq	%rax, %rsi
	movq	%r15, 192(%r8)
	movq	%r15, -72(%rsp)
	imulq	128(%rdx), %rsi
	movq	%rsi, %r15
	addq	-56(%rsp), %r15
	movq	%rax, %rsi
	movq	%r15, 200(%r8)
	movq	%r15, -64(%rsp)
	imulq	136(%rdx), %rsi
	movq	%rsi, %r15
	addq	-48(%rsp), %r15
	movq	%rax, %rsi
	movq	%r15, 208(%r8)
	movq	%r15, -56(%rsp)
	imulq	144(%rdx), %rsi
	movq	%rsi, %r15
	addq	-40(%rsp), %r15
	movq	%rax, %rsi
	movq	%r15, 216(%r8)
	movq	%r15, -48(%rsp)
	imulq	152(%rdx), %rsi
	movq	%rsi, %r15
	addq	-32(%rsp), %r15
	movq	%rax, %rsi
	movq	%r15, 224(%r8)
	movq	%r15, -40(%rsp)
	imulq	160(%rdx), %rsi
	movq	%rsi, %r15
	addq	-24(%rsp), %r15
	movq	%rax, %rsi
	movq	%r15, -32(%rsp)
	movq	%r15, 232(%r8)
	imulq	168(%rdx), %rsi
	movq	%rsi, %r15
	addq	-16(%rsp), %r15
	movq	%rax, %rsi
	movq	%r15, 240(%r8)
	movq	%r15, -24(%rsp)
	imulq	176(%rdx), %rsi
	addq	-8(%rsp), %rsi
	movq	%rsi, 248(%r8)
	movq	%rsi, -16(%rsp)
	movq	%rax, %rsi
	imulq	184(%rdx), %rsi
	addq	(%rsp), %rsi
	movq	%rsi, 256(%r8)
	movq	%rsi, -8(%rsp)
	movq	%rax, %rsi
	imulq	192(%rdx), %rsi
	addq	8(%rsp), %rsi
	movq	%rsi, 264(%r8)
	movq	%rsi, (%rsp)
	movq	%rax, %rsi
	imulq	200(%rdx), %rsi
	addq	16(%rsp), %rsi
	movq	%rsi, 272(%r8)
	movq	%rsi, 8(%rsp)
	movq	%rax, %rsi
	imulq	208(%rdx), %rsi
	addq	24(%rsp), %rsi
	movq	%rsi, 280(%r8)
	movq	%rsi, 16(%rsp)
	movq	%rax, %rsi
	imulq	216(%rdx), %rsi
	addq	32(%rsp), %rsi
	movq	%rsi, 24(%rsp)
	movq	%rsi, 288(%r8)
	movq	%rax, %rsi
	imulq	224(%rdx), %rsi
	addq	40(%rsp), %rsi
	movq	%rsi, 32(%rsp)
	movq	%rsi, 296(%r8)
	movq	%rax, %rsi
	imulq	232(%rdx), %rsi
	addq	48(%rsp), %rsi
	movq	%rsi, 304(%r8)
	movq	%rsi, 40(%rsp)
	movq	%rax, %rsi
	imulq	240(%rdx), %rsi
	addq	%rsi, %rcx
	movq	%rcx, 312(%r8)
	movq	%rcx, 48(%rsp)
	imulq	248(%rdx), %rax
	movq	-120(%rsp), %rcx
	addq	320(%r8), %rax
	movq	%rax, 320(%r8)
	movq	80(%rcx), %rcx
	movq	%rcx, %rsi
	imulq	(%rdx), %rsi
	addq	%r9, %rsi
	movq	%rcx, %r9
	movq	%rsi, 80(%r8)
	movq	-112(%rsp), %rsi
	imulq	8(%rdx), %r9
	addq	%r9, %rdi
	movq	%rcx, %r9
	movq	%rdi, 88(%r8)
	imulq	16(%rdx), %r9
	addq	%r9, %r14
	movq	%rcx, %r9
	movq	%r14, 96(%r8)
	imulq	24(%rdx), %r9
	addq	%r9, %r13
	movq	%rcx, %r9
	movq	%r13, 104(%r8)
	imulq	32(%rdx), %r9
	addq	%r9, %r12
	movq	%rcx, %r9
	movq	%r12, 112(%r8)
	imulq	40(%rdx), %r9
	addq	%r9, %rbp
	movq	%rcx, %r9
	movq	%rbp, 120(%r8)
	imulq	48(%rdx), %r9
	addq	%r9, %rbx
	movq	%rcx, %r9
	movq	%rbx, 128(%r8)
	imulq	56(%rdx), %r9
	addq	%r9, %r11
	movq	%rcx, %r9
	movq	%r11, 136(%r8)
	imulq	64(%rdx), %r9
	addq	%r9, %r10
	movq	%rcx, %r9
	movq	%r10, 144(%r8)
	imulq	72(%rdx), %r9
	leaq	(%r9,%rsi), %r9
	movq	%rcx, %rsi
	movq	%r9, 152(%r8)
	imulq	80(%rdx), %rsi
	movq	%rsi, %r15
	addq	-104(%rsp), %r15
	movq	%rcx, %rsi
	movq	%r15, 160(%r8)
	movq	%r15, -112(%rsp)
	imulq	88(%rdx), %rsi
	movq	%rsi, %r15
	addq	-96(%rsp), %r15
	movq	%rcx, %rsi
	movq	%r15, 168(%r8)
	movq	%r15, -104(%rsp)
	imulq	96(%rdx), %rsi
	movq	%rsi, %r15
	addq	-88(%rsp), %r15
	movq	%rcx, %rsi
	movq	%r15, 176(%r8)
	movq	%r15, -96(%rsp)
	imulq	104(%rdx), %rsi
	movq	%rsi, %r15
	addq	-80(%rsp), %r15
	movq	%rcx, %rsi
	movq	%r15, 184(%r8)
	movq	%r15, -88(%rsp)
	imulq	112(%rdx), %rsi
	movq	%rsi, %r15
	addq	-72(%rsp), %r15
	movq	%rcx, %rsi
	movq	%r15, 192(%r8)
	movq	%r15, -80(%rsp)
	imulq	120(%rdx), %rsi
	movq	%rsi, %r15
	addq	-64(%rsp), %r15
	movq	%rcx, %rsi
	movq	%r15, 200(%r8)
	movq	%r15, -72(%rsp)
	imulq	128(%rdx), %rsi
	movq	%rsi, %r15
	addq	-56(%rsp), %r15
	movq	%rcx, %rsi
	movq	%r15, 208(%r8)
	movq	%r15, -64(%rsp)
	imulq	136(%rdx), %rsi
	movq	%rsi, %r15
	addq	-48(%rsp), %r15
	movq	%rcx, %rsi
	movq	%r15, -56(%rsp)
	movq	%r15, 216(%r8)
	imulq	144(%rdx), %rsi
	movq	%rsi, %r15
	addq	-40(%rsp), %r15
	movq	%rcx, %rsi
	movq	%r15, 224(%r8)
	movq	%r15, -48(%rsp)
	imulq	152(%rdx), %rsi
	movq	%rsi, %r15
	addq	-32(%rsp), %r15
	movq	%rcx, %rsi
	movq	%r15, 232(%r8)
	movq	%r15, -40(%rsp)
	imulq	160(%rdx), %rsi
	movq	%rsi, %r15
	addq	-24(%rsp), %r15
	movq	%rcx, %rsi
	movq	%r15, 240(%r8)
	movq	%r15, -32(%rsp)
	imulq	168(%rdx), %rsi
	addq	-16(%rsp), %rsi
	movq	%rsi, 248(%r8)
	movq	%rsi, -24(%rsp)
	movq	%rcx, %rsi
	imulq	176(%rdx), %rsi
	addq	-8(%rsp), %rsi
	movq	%rsi, 256(%r8)
	movq	%rsi, -16(%rsp)
	movq	%rcx, %rsi
	imulq	184(%rdx), %rsi
	addq	(%rsp), %rsi
	movq	%rsi, 264(%r8)
	movq	%rsi, -8(%rsp)
	movq	%rcx, %rsi
	imulq	192(%rdx), %rsi
	addq	8(%rsp), %rsi
	movq	%rsi, (%rsp)
	movq	%rsi, 272(%r8)
	movq	%rcx, %rsi
	imulq	200(%rdx), %rsi
	addq	16(%rsp), %rsi
	movq	%rsi, 8(%rsp)
	movq	%rsi, 280(%r8)
	movq	%rcx, %rsi
	imulq	208(%rdx), %rsi
	addq	24(%rsp), %rsi
	movq	%rsi, 288(%r8)
	movq	%rsi, 16(%rsp)
	movq	%rcx, %rsi
	imulq	216(%rdx), %rsi
	addq	32(%rsp), %rsi
	movq	%rsi, 296(%r8)
	movq	%rsi, 24(%rsp)
	movq	%rcx, %rsi
	imulq	224(%rdx), %rsi
	addq	40(%rsp), %rsi
	movq	%rsi, 304(%r8)
	movq	%rsi, 32(%rsp)
	movq	%rcx, %rsi
	imulq	232(%rdx), %rsi
	addq	48(%rsp), %rsi
	movq	%rsi, 312(%r8)
	movq	%rsi, 40(%rsp)
	movq	%rcx, %rsi
	imulq	240(%rdx), %rsi
	addq	%rsi, %rax
	movq	%rax, 320(%r8)
	movq	%rax, 48(%rsp)
	imulq	248(%rdx), %rcx
	movq	-120(%rsp), %rax
	addq	328(%r8), %rcx
	movq	%rcx, 328(%r8)
	movq	88(%rax), %rax
	movq	%rax, %rsi
	imulq	(%rdx), %rsi
	addq	%rdi, %rsi
	movq	%rax, %rdi
	movq	%rsi, 88(%r8)
	imulq	8(%rdx), %rdi
	addq	%rdi, %r14
	movq	%rax, %rdi
	movq	%r14, 96(%r8)
	imulq	16(%rdx), %rdi
	addq	%rdi, %r13
	movq	%rax, %rdi
	movq	%r13, 104(%r8)
	imulq	24(%rdx), %rdi
	addq	%rdi, %r12
	movq	%rax, %rdi
	movq	%r12, 112(%r8)
	imulq	32(%rdx), %rdi
	movq	-112(%rsp), %rsi
	addq	%rdi, %rbp
	movq	%rax, %rdi
	movq	%rbp, 120(%r8)
	imulq	40(%rdx), %rdi
	addq	%rdi, %rbx
	movq	%rax, %rdi
	movq	%rbx, 128(%r8)
	imulq	48(%rdx), %rdi
	addq	%rdi, %r11
	movq	%rax, %rdi
	movq	%r11, 136(%r8)
	imulq	56(%rdx), %rdi
	addq	%rdi, %r10
	movq	%rax, %rdi
	movq	%r10, 144(%r8)
	imulq	64(%rdx), %rdi
	addq	%rdi, %r9
	movq	%rax, %rdi
	movq	%r9, 152(%r8)
	imulq	72(%rdx), %rdi
	leaq	(%rdi,%rsi), %rdi
	movq	%rax, %rsi
	movq	%rdi, 160(%r8)
	imulq	80(%rdx), %rsi
	movq	%rsi, %r15
	addq	-104(%rsp), %r15
	movq	%rax, %rsi
	movq	%r15, 168(%r8)
	movq	%r15, -112(%rsp)
	imulq	88(%rdx), %rsi
	movq	%rsi, %r15
	addq	-96(%rsp), %r15
	movq	%rax, %rsi
	movq	%r15, 176(%r8)
	movq	%r15, -104(%rsp)
	imulq	96(%rdx), %rsi
	movq	%rsi, %r15
	addq	-88(%rsp), %r15
	movq	%rax, %rsi
	movq	%r15, 184(%r8)
	movq	%r15, -96(%rsp)
	imulq	104(%rdx), %rsi
	movq	%rsi, %r15
	addq	-80(%rsp), %r15
	movq	%rax, %rsi
	movq	%r15, 192(%r8)
	movq	%r15, -88(%rsp)
	imulq	112(%rdx), %rsi
	movq	%rsi, %r15
	addq	-72(%rsp), %r15
	movq	%rax, %rsi
	movq	%r15, -80(%rsp)
	movq	%r15, 200(%r8)
	imulq	120(%rdx), %rsi
	movq	%rsi, %r15
	addq	-64(%rsp), %r15
	movq	%rax, %rsi
	movq	%r15, 208(%r8)
	movq	%r15, -72(%rsp)
	imulq	128(%rdx), %rsi
	movq	%rsi, %r15
	addq	-56(%rsp), %r15
	movq	%rax, %rsi
	movq	%r15, 216(%r8)
	movq	%r15, -64(%rsp)
	imulq	136(%rdx), %rsi
	movq	%rsi, %r15
	addq	-48(%rsp), %r15
	movq	%rax, %rsi
	movq	%r15, 224(%r8)
	movq	%r15, -56(%rsp)
	imulq	144(%rdx), %rsi
	movq	%rsi, %r15
	addq	-40(%rsp), %r15
	movq	%rax, %rsi
	movq	%r15, 232(%r8)
	movq	%r15, -48(%rsp)
	imulq	152(%rdx), %rsi
	movq	%rsi, %r15
	addq	-32(%rsp), %r15
	movq	%rax, %rsi
	movq	%r15, 240(%r8)
	movq	%r15, -40(%rsp)
	imulq	160(%rdx), %rsi
	addq	-24(%rsp), %rsi
	movq	%rsi, 248(%r8)
	movq	%rsi, -32(%rsp)
	movq	%rax, %rsi
	imulq	168(%rdx), %rsi
	addq	-16(%rsp), %rsi
	movq	%rsi, -24(%rsp)
	movq	%rsi, 256(%r8)
	movq	%rax, %rsi
	imulq	176(%rdx), %rsi
	addq	-8(%rsp), %rsi
	movq	%rsi, -16(%rsp)
	movq	%rsi, 264(%r8)
	movq	%rax, %rsi
	imulq	184(%rdx), %rsi
	addq	(%rsp), %rsi
	movq	%rsi, 272(%r8)
	movq	%rsi, -8(%rsp)
	movq	%rax, %rsi
	imulq	192(%rdx), %rsi
	addq	8(%rsp), %rsi
	movq	%rsi, 280(%r8)
	movq	%rsi, (%rsp)
	movq	%rax, %rsi
	imulq	200(%rdx), %rsi
	addq	16(%rsp), %rsi
	movq	%rsi, 288(%r8)
	movq	%rsi, 8(%rsp)
	movq	%rax, %rsi
	imulq	208(%rdx), %rsi
	addq	24(%rsp), %rsi
	movq	%rsi, 296(%r8)
	movq	%rsi, 16(%rsp)
	movq	%rax, %rsi
	imulq	216(%rdx), %rsi
	addq	32(%rsp), %rsi
	movq	%rsi, 304(%r8)
	movq	%rsi, 24(%rsp)
	movq	%rax, %rsi
	imulq	224(%rdx), %rsi
	addq	40(%rsp), %rsi
	movq	%rsi, 312(%r8)
	movq	%rsi, 32(%rsp)
	movq	%rax, %rsi
	imulq	232(%rdx), %rsi
	addq	48(%rsp), %rsi
	movq	%rsi, 320(%r8)
	movq	%rsi, 40(%rsp)
	movq	%rax, %rsi
	imulq	240(%rdx), %rsi
	addq	%rsi, %rcx
	movq	%rcx, 328(%r8)
	movq	%rcx, 48(%rsp)
	imulq	248(%rdx), %rax
	addq	336(%r8), %rax
	movq	-120(%rsp), %rcx
	movq	%rax, 336(%r8)
	movq	96(%rcx), %rcx
	movq	%rcx, %rsi
	imulq	(%rdx), %rsi
	addq	%r14, %rsi
	movq	%rcx, %r14
	movq	%rsi, 96(%r8)
	movq	-112(%rsp), %rsi
	imulq	8(%rdx), %r14
	addq	%r14, %r13
	movq	%rcx, %r14
	movq	%r13, 104(%r8)
	imulq	16(%rdx), %r14
	addq	%r14, %r12
	movq	%rcx, %r14
	movq	%r12, 112(%r8)
	imulq	24(%rdx), %r14
	addq	%r14, %rbp
	movq	%rcx, %r14
	movq	%rbp, 120(%r8)
	imulq	32(%rdx), %r14
	addq	%r14, %rbx
	movq	%rcx, %r14
	movq	%rbx, 128(%r8)
	imulq	40(%rdx), %r14
	addq	%r14, %r11
	movq	%rcx, %r14
	movq	%r11, 136(%r8)
	imulq	48(%rdx), %r14
	addq	%r14, %r10
	movq	%rcx, %r14
	movq	%r10, 144(%r8)
	imulq	56(%rdx), %r14
	addq	%r14, %r9
	movq	%rcx, %r14
	movq	%r9, 152(%r8)
	imulq	64(%rdx), %r14
	addq	%r14, %rdi
	movq	%rcx, %r14
	movq	%rdi, 160(%r8)
	imulq	72(%rdx), %r14
	leaq	(%r14,%rsi), %r14
	movq	%rcx, %rsi
	movq	%r14, 168(%r8)
	imulq	80(%rdx), %rsi
	movq	%rsi, %r15
	addq	-104(%rsp), %r15
	movq	%rcx, %rsi
	movq	%r15, 176(%r8)
	movq	%r15, -112(%rsp)
	imulq	88(%rdx), %rsi
	movq	%rsi, %r15
	addq	-96(%rsp), %r15
	movq	%rcx, %rsi
	movq	%r15, -104(%rsp)
	movq	%r15, 184(%r8)
	imulq	96(%rdx), %rsi
	movq	%rsi, %r15
	addq	-88(%rsp), %r15
	movq	%rcx, %rsi
	movq	%r15, 192(%r8)
	movq	%r15, -96(%rsp)
	imulq	104(%rdx), %rsi
	movq	%rsi, %r15
	addq	-80(%rsp), %r15
	movq	%r15, 200(%r8)
	movq	%r15, -88(%rsp)
	movq	%rcx, %r15
	imulq	112(%rdx), %r15
	addq	-72(%rsp), %r15
	movq	%r15, 208(%r8)
	movq	%r15, -80(%rsp)
	movq	%rcx, %r15
	imulq	120(%rdx), %r15
	addq	-64(%rsp), %r15
	movq	%r15, 216(%r8)
	movq	%r15, -72(%rsp)
	movq	%rcx, %r15
	imulq	128(%rdx), %r15
	addq	-56(%rsp), %r15
	movq	%r15, 224(%r8)
	movq	%r15, -64(%rsp)
	movq	%rcx, %r15
	imulq	136(%rdx), %r15
	addq	-48(%rsp), %r15
	movq	%r15, 232(%r8)
	movq	%r15, -56(%rsp)
	movq	%rcx, %r15
	imulq	144(%rdx), %r15
	addq	-40(%rsp), %r15
	movq	%r15, -48(%rsp)
	movq	%r15, 240(%r8)
	movq	%rcx, %r15
	imulq	152(%rdx), %r15
	movq	%r15, %rsi
	addq	-32(%rsp), %rsi
	movq	%rcx, %r15
	movq	%rsi, -40(%rsp)
	movq	%rsi, 248(%r8)
	imulq	160(%rdx), %r15
	movq	%r15, %rsi
	addq	-24(%rsp), %rsi
	movq	%rcx, %r15
	movq	%rsi, 256(%r8)
	movq	%rsi, -32(%rsp)
	imulq	168(%rdx), %r15
	movq	%r15, %rsi
	addq	-16(%rsp), %rsi
	movq	%rcx, %r15
	movq	%rsi, 264(%r8)
	movq	%rsi, -24(%rsp)
	imulq	176(%rdx), %r15
	movq	%r15, %rsi
	addq	-8(%rsp), %rsi
	movq	%rcx, %r15
	movq	%rsi, 272(%r8)
	movq	%rsi, -16(%rsp)
	imulq	184(%rdx), %r15
	movq	%r15, %rsi
	addq	(%rsp), %rsi
	movq	%rcx, %r15
	movq	%rsi, 280(%r8)
	movq	%rsi, -8(%rsp)
	imulq	192(%rdx), %r15
	movq	%r15, %rsi
	addq	8(%rsp), %rsi
	movq	%rcx, %r15
	movq	%rsi, 288(%r8)
	movq	%rsi, (%rsp)
	imulq	200(%rdx), %r15
	movq	%r15, %rsi
	addq	16(%rsp), %rsi
	movq	%rcx, %r15
	movq	%rsi, 296(%r8)
	movq	%rsi, 8(%rsp)
	imulq	208(%rdx), %r15
	movq	%r15, %rsi
	addq	24(%rsp), %rsi
	movq	%rcx, %r15
	movq	%rsi, 304(%r8)
	movq	%rsi, 16(%rsp)
	imulq	216(%rdx), %r15
	movq	%r15, %rsi
	addq	32(%rsp), %rsi
	movq	%rcx, %r15
	movq	%rsi, 24(%rsp)
	movq	%rsi, 312(%r8)
	imulq	224(%rdx), %r15
	movq	%r15, %rsi
	addq	40(%rsp), %rsi
	movq	%rcx, %r15
	movq	%rsi, 320(%r8)
	movq	%rsi, 32(%rsp)
	movq	%rcx, %rsi
	imulq	232(%rdx), %r15
	addq	48(%rsp), %r15
	movq	%r15, 328(%r8)
	movq	%r15, 40(%rsp)
	imulq	240(%rdx), %rsi
	addq	%rsi, %rax
	movq	%rax, 336(%r8)
	movq	%rax, 48(%rsp)
	imulq	248(%rdx), %rcx
	movq	-120(%rsp), %rax
	addq	344(%r8), %rcx
	movq	%rcx, 344(%r8)
	movq	104(%rax), %rax
	movq	%rax, %rsi
	imulq	(%rdx), %rsi
	addq	%rsi, %r13
	movq	%r13, 104(%r8)
	movq	%rax, %r13
	imulq	8(%rdx), %r13
	addq	%r13, %r12
	movq	%rax, %r13
	movq	%r12, 112(%r8)
	imulq	16(%rdx), %r13
	addq	%r13, %rbp
	movq	%rax, %r13
	movq	%rbp, 120(%r8)
	imulq	24(%rdx), %r13
	addq	%r13, %rbx
	movq	%rax, %r13
	movq	%rbx, 128(%r8)
	imulq	32(%rdx), %r13
	addq	%r13, %r11
	movq	%rax, %r13
	movq	%r11, 136(%r8)
	imulq	40(%rdx), %r13
	addq	%r13, %r10
	movq	%rax, %r13
	movq	%r10, 144(%r8)
	imulq	48(%rdx), %r13
	addq	%r13, %r9
	movq	%rax, %r13
	movq	%r9, 152(%r8)
	imulq	56(%rdx), %r13
	addq	%r13, %rdi
	movq	%rax, %r13
	movq	%rdi, 160(%r8)
	imulq	64(%rdx), %r13
	movq	-112(%rsp), %rsi
	addq	%r13, %r14
	movq	%rax, %r13
	movq	%r14, 168(%r8)
	imulq	72(%rdx), %r13
	leaq	0(%r13,%rsi), %r13
	movq	%rax, %rsi
	movq	%r13, 176(%r8)
	imulq	80(%rdx), %rsi
	movq	%rsi, %r15
	addq	-104(%rsp), %r15
	movq	%rax, %rsi
	movq	%r15, 184(%r8)
	movq	%r15, -112(%rsp)
	imulq	88(%rdx), %rsi
	movq	%rsi, %r15
	addq	-96(%rsp), %r15
	movq	%rax, %rsi
	movq	%r15, 192(%r8)
	movq	%r15, -104(%rsp)
	imulq	96(%rdx), %rsi
	movq	%rsi, %r15
	addq	-88(%rsp), %r15
	movq	%rax, %rsi
	movq	%r15, 200(%r8)
	movq	%r15, -96(%rsp)
	imulq	104(%rdx), %rsi
	movq	%rsi, %r15
	addq	-80(%rsp), %r15
	movq	%rax, %rsi
	movq	%r15, 208(%r8)
	movq	%r15, -88(%rsp)
	imulq	112(%rdx), %rsi
	movq	%rsi, %r15
	addq	-72(%rsp), %r15
	movq	%rax, %rsi
	movq	%r15, 216(%r8)
	movq	%r15, -80(%rsp)
	imulq	120(%rdx), %rsi
	movq	%rsi, %r15
	addq	-64(%rsp), %r15
	movq	%rax, %rsi
	movq	%r15, 224(%r8)
	movq	%r15, -72(%rsp)
	imulq	128(%rdx), %rsi
	movq	%rsi, %r15
	addq	-56(%rsp), %r15
	movq	%rax, %rsi
	movq	%r15, -64(%rsp)
	movq	%r15, 232(%r8)
	imulq	136(%rdx), %rsi
	movq	%rsi, %r15
	addq	-48(%rsp), %r15
	movq	%rax, %rsi
	movq	%r15, 240(%r8)
	movq	%r15, -56(%rsp)
	imulq	144(%rdx), %rsi
	addq	-40(%rsp), %rsi
	movq	%rsi, 248(%r8)
	movq	%rsi, -48(%rsp)
	movq	%rax, %rsi
	imulq	152(%rdx), %rsi
	addq	-32(%rsp), %rsi
	movq	%rsi, 256(%r8)
	movq	%rsi, -40(%rsp)
	movq	%rax, %rsi
	imulq	160(%rdx), %rsi
	addq	-24(%rsp), %rsi
	movq	%rsi, 264(%r8)
	movq	%rsi, -32(%rsp)
	movq	%rax, %rsi
	imulq	168(%rdx), %rsi
	addq	-16(%rsp), %rsi
	movq	%rsi, 272(%r8)
	movq	%rsi, -24(%rsp)
	movq	%rax, %rsi
	imulq	176(%rdx), %rsi
	addq	-8(%rsp), %rsi
	movq	%rsi, 280(%r8)
	movq	%rsi, -16(%rsp)
	movq	%rax, %rsi
	imulq	184(%rdx), %rsi
	addq	(%rsp), %rsi
	movq	%rsi, -8(%rsp)
	movq	%rsi, 288(%r8)
	movq	%rax, %rsi
	imulq	192(%rdx), %rsi
	addq	8(%rsp), %rsi
	movq	%rsi, (%rsp)
	movq	%rsi, 296(%r8)
	movq	%rax, %rsi
	imulq	200(%rdx), %rsi
	addq	16(%rsp), %rsi
	movq	%rsi, 304(%r8)
	movq	%rsi, 8(%rsp)
	movq	%rax, %rsi
	imulq	208(%rdx), %rsi
	addq	24(%rsp), %rsi
	movq	%rsi, 312(%r8)
	movq	%rsi, 16(%rsp)
	movq	%rax, %rsi
	imulq	216(%rdx), %rsi
	addq	32(%rsp), %rsi
	movq	%rsi, 320(%r8)
	movq	%rsi, 24(%rsp)
	movq	%rax, %rsi
	imulq	224(%rdx), %rsi
	addq	40(%rsp), %rsi
	movq	%rsi, 328(%r8)
	movq	%rsi, 32(%rsp)
	movq	%rax, %rsi
	imulq	232(%rdx), %rsi
	addq	48(%rsp), %rsi
	movq	%rsi, 336(%r8)
	movq	%rsi, 40(%rsp)
	movq	%rax, %rsi
	imulq	240(%rdx), %rsi
	addq	%rsi, %rcx
	movq	%rcx, 344(%r8)
	movq	%rcx, 48(%rsp)
	imulq	248(%rdx), %rax
	movq	-120(%rsp), %rcx
	addq	352(%r8), %rax
	movq	%rax, 352(%r8)
	movq	112(%rcx), %rcx
	movq	%rcx, %rsi
	imulq	(%rdx), %rsi
	addq	%rsi, %r12
	movq	%r12, 112(%r8)
	movq	%rcx, %r12
	imulq	8(%rdx), %r12
	addq	%r12, %rbp
	movq	%rcx, %r12
	movq	%rbp, 120(%r8)
	imulq	16(%rdx), %r12
	movq	-112(%rsp), %rsi
	addq	%r12, %rbx
	movq	%rcx, %r12
	movq	%rbx, 128(%r8)
	imulq	24(%rdx), %r12
	addq	%r12, %r11
	movq	%rcx, %r12
	movq	%r11, 136(%r8)
	imulq	32(%rdx), %r12
	addq	%r12, %r10
	movq	%rcx, %r12
	movq	%r10, 144(%r8)
	imulq	40(%rdx), %r12
	addq	%r12, %r9
	movq	%rcx, %r12
	movq	%r9, 152(%r8)
	imulq	48(%rdx), %r12
	addq	%r12, %rdi
	movq	%rcx, %r12
	movq	%rdi, 160(%r8)
	imulq	56(%rdx), %r12
	addq	%r12, %r14
	movq	%rcx, %r12
	movq	%r14, 168(%r8)
	imulq	64(%rdx), %r12
	addq	%r12, %r13
	movq	%rcx, %r12
	movq	%r13, 176(%r8)
	imulq	72(%rdx), %r12
	leaq	(%r12,%rsi), %r12
	movq	%rcx, %rsi
	movq	%r12, 184(%r8)
	imulq	80(%rdx), %rsi
	movq	%rsi, %r15
	addq	-104(%rsp), %r15
	movq	%rcx, %rsi
	movq	%r15, 192(%r8)
	movq	%r15, -112(%rsp)
	imulq	88(%rdx), %rsi
	movq	%rsi, %r15
	addq	-96(%rsp), %r15
	movq	%rcx, %rsi
	movq	%r15, 200(%r8)
	movq	%r15, -104(%rsp)
	imulq	96(%rdx), %rsi
	movq	%rsi, %r15
	addq	-88(%rsp), %r15
	movq	%rcx, %rsi
	movq	%r15, 208(%r8)
	movq	%r15, -96(%rsp)
	imulq	104(%rdx), %rsi
	movq	%rsi, %r15
	addq	-80(%rsp), %r15
	movq	%rcx, %rsi
	movq	%r15, -88(%rsp)
	movq	%r15, 216(%r8)
	imulq	112(%rdx), %rsi
	movq	%rsi, %r15
	addq	-72(%rsp), %r15
	movq	%rcx, %rsi
	movq	%r15, 224(%r8)
	movq	%r15, -80(%rsp)
	imulq	120(%rdx), %rsi
	movq	%rsi, %r15
	addq	-64(%rsp), %r15
	movq	%rcx, %rsi
	movq	%r15, 232(%r8)
	movq	%r15, -72(%rsp)
	imulq	128(%rdx), %rsi
	movq	%rsi, %r15
	addq	-56(%rsp), %r15
	movq	%rcx, %rsi
	movq	%r15, 240(%r8)
	movq	%r15, -64(%rsp)
	imulq	136(%rdx), %rsi
	addq	-48(%rsp), %rsi
	movq	%rsi, 248(%r8)
	movq	%rsi, -56(%rsp)
	movq	%rcx, %rsi
	imulq	144(%rdx), %rsi
	addq	-40(%rsp), %rsi
	movq	%rsi, 256(%r8)
	movq	%rsi, -48(%rsp)
	movq	%rcx, %rsi
	imulq	152(%rdx), %rsi
	addq	-32(%rsp), %rsi
	movq	%rsi, 264(%r8)
	movq	%rsi, -40(%rsp)
	movq	%rcx, %rsi
	imulq	160(%rdx), %rsi
	addq	-24(%rsp), %rsi
	movq	%rsi, -32(%rsp)
	movq	%rsi, 272(%r8)
	movq	%rcx, %rsi
	imulq	168(%rdx), %rsi
	addq	-16(%rsp), %rsi
	movq	%rsi, -24(%rsp)
	movq	%rsi, 280(%r8)
	movq	%rcx, %rsi
	imulq	176(%rdx), %rsi
	addq	-8(%rsp), %rsi
	movq	%rsi, 288(%r8)
	movq	%rsi, -16(%rsp)
	movq	%rcx, %rsi
	imulq	184(%rdx), %rsi
	addq	(%rsp), %rsi
	movq	%rsi, 296(%r8)
	movq	%rsi, -8(%rsp)
	movq	%rcx, %rsi
	imulq	192(%rdx), %rsi
	addq	8(%rsp), %rsi
	movq	%rsi, 304(%r8)
	movq	%rsi, (%rsp)
	movq	%rcx, %rsi
	imulq	200(%rdx), %rsi
	addq	16(%rsp), %rsi
	movq	%rsi, 312(%r8)
	movq	%rsi, 8(%rsp)
	movq	%rcx, %rsi
	imulq	208(%rdx), %rsi
	addq	24(%rsp), %rsi
	movq	%rsi, 320(%r8)
	movq	%rsi, 16(%rsp)
	movq	%rcx, %rsi
	imulq	216(%rdx), %rsi
	addq	32(%rsp), %rsi
	movq	%rsi, 328(%r8)
	movq	%rsi, 24(%rsp)
	movq	%rcx, %rsi
	imulq	224(%rdx), %rsi
	addq	40(%rsp), %rsi
	movq	%rsi, 32(%rsp)
	movq	%rsi, 336(%r8)
	movq	%rcx, %rsi
	imulq	232(%rdx), %rsi
	addq	48(%rsp), %rsi
	movq	%rsi, 40(%rsp)
	movq	%rsi, 344(%r8)
	movq	%rcx, %rsi
	imulq	240(%rdx), %rsi
	addq	%rsi, %rax
	movq	-112(%rsp), %rsi
	movq	%rax, 352(%r8)
	movq	%rax, 48(%rsp)
	imulq	248(%rdx), %rcx
	movq	-120(%rsp), %rax
	addq	360(%r8), %rcx
	movq	%rcx, 360(%r8)
	movq	120(%rax), %rax
	movq	%rax, %r15
	imulq	(%rdx), %r15
	addq	%r15, %rbp
	movq	%rbp, 120(%r8)
	movq	%rax, %rbp
	imulq	8(%rdx), %rbp
	addq	%rbp, %rbx
	movq	%rax, %rbp
	movq	%rbx, 128(%r8)
	imulq	16(%rdx), %rbp
	addq	%rbp, %r11
	movq	%rax, %rbp
	movq	%r11, 136(%r8)
	imulq	24(%rdx), %rbp
	addq	%rbp, %r10
	movq	%rax, %rbp
	movq	%r10, 144(%r8)
	imulq	32(%rdx), %rbp
	addq	%rbp, %r9
	movq	%rax, %rbp
	movq	%r9, 152(%r8)
	imulq	40(%rdx), %rbp
	addq	%rbp, %rdi
	movq	%rax, %rbp
	movq	%rdi, 160(%r8)
	imulq	48(%rdx), %rbp
	addq	%rbp, %r14
	movq	%rax, %rbp
	movq	%r14, 168(%r8)
	imulq	56(%rdx), %rbp
	addq	%rbp, %r13
	movq	%rax, %rbp
	movq	%r13, 176(%r8)
	imulq	64(%rdx), %rbp
	addq	%rbp, %r12
	movq	%rax, %rbp
	movq	%r12, 184(%r8)
	imulq	72(%rdx), %rbp
	leaq	0(%rbp,%rsi), %rbp
	movq	%rax, %rsi
	movq	%rbp, 192(%r8)
	imulq	80(%rdx), %rsi
	movq	%rsi, %r15
	addq	-104(%rsp), %r15
	movq	%rax, %rsi
	movq	%r15, -112(%rsp)
	movq	%r15, 200(%r8)
	imulq	88(%rdx), %rsi
	movq	%rsi, %r15
	addq	-96(%rsp), %r15
	movq	%rax, %rsi
	movq	%r15, 208(%r8)
	movq	%r15, -104(%rsp)
	imulq	96(%rdx), %rsi
	movq	%rsi, %r15
	addq	-88(%rsp), %r15
	movq	%rax, %rsi
	movq	%r15, 216(%r8)
	movq	%r15, -96(%rsp)
	imulq	104(%rdx), %rsi
	movq	%rsi, %r15
	addq	-80(%rsp), %r15
	movq	%rax, %rsi
	movq	%r15, 224(%r8)
	movq	%r15, -88(%rsp)
	imulq	112(%rdx), %rsi
	movq	%rsi, %r15
	addq	-72(%rsp), %r15
	movq	%rax, %rsi
	movq	%r15, 232(%r8)
	movq	%r15, -80(%rsp)
	imulq	120(%rdx), %rsi
	movq	%rsi, %r15
	addq	-64(%rsp), %r15
	movq	%rax, %rsi
	movq	%r15, 240(%r8)
	movq	%r15, -72(%rsp)
	imulq	128(%rdx), %rsi
	addq	-56(%rsp), %rsi
	movq	%rsi, 248(%r8)
	movq	%rsi, -64(%rsp)
	movq	%rax, %rsi
	imulq	136(%rdx), %rsi
	addq	-48(%rsp), %rsi
	movq	%rsi, -56(%rsp)
	movq	%rsi, 256(%r8)
	movq	%rax, %rsi
	imulq	144(%rdx), %rsi
	addq	-40(%rsp), %rsi
	movq	%rsi, -48(%rsp)
	movq	%rsi, 264(%r8)
	movq	%rax, %rsi
	imulq	152(%rdx), %rsi
	addq	-32(%rsp), %rsi
	movq	%rsi, 272(%r8)
	movq	%rsi, -40(%rsp)
	movq	%rax, %rsi
	imulq	160(%rdx), %rsi
	addq	-24(%rsp), %rsi
	movq	%rsi, 280(%r8)
	movq	%rsi, -32(%rsp)
	movq	%rax, %rsi
	imulq	168(%rdx), %rsi
	addq	-16(%rsp), %rsi
	movq	%rsi, 288(%r8)
	movq	%rsi, -24(%rsp)
	movq	%rax, %rsi
	imulq	176(%rdx), %rsi
	addq	-8(%rsp), %rsi
	movq	%rsi, 296(%r8)
	movq	%rsi, -16(%rsp)
	movq	%rax, %rsi
	imulq	184(%rdx), %rsi
	addq	(%rsp), %rsi
	movq	%rsi, 304(%r8)
	movq	%rsi, -8(%rsp)
	movq	%rax, %rsi
	imulq	192(%rdx), %rsi
	addq	8(%rsp), %rsi
	movq	%rsi, 312(%r8)
	movq	%rsi, (%rsp)
	movq	%rax, %rsi
	imulq	200(%rdx), %rsi
	addq	16(%rsp), %rsi
	movq	%rsi, 8(%rsp)
	movq	%rsi, 320(%r8)
	movq	%rax, %rsi
	imulq	208(%rdx), %rsi
	addq	24(%rsp), %rsi
	movq	%rsi, 16(%rsp)
	movq	%rsi, 328(%r8)
	movq	%rax, %rsi
	imulq	216(%rdx), %rsi
	addq	32(%rsp), %rsi
	movq	%rsi, 336(%r8)
	movq	%rsi, 24(%rsp)
	movq	%rax, %rsi
	imulq	224(%rdx), %rsi
	addq	40(%rsp), %rsi
	movq	%rsi, 344(%r8)
	movq	%rsi, 32(%rsp)
	movq	%rax, %rsi
	imulq	232(%rdx), %rsi
	addq	48(%rsp), %rsi
	movq	%rsi, 352(%r8)
	movq	%rsi, 40(%rsp)
	movq	%rax, %rsi
	imulq	240(%rdx), %rsi
	addq	%rsi, %rcx
	movq	%rcx, 360(%r8)
	movq	%rcx, 48(%rsp)
	imulq	248(%rdx), %rax
	movq	-120(%rsp), %rcx
	addq	368(%r8), %rax
	movq	%rax, 368(%r8)
	movq	128(%rcx), %rcx
	movq	%rcx, %r15
	imulq	(%rdx), %r15
	addq	%r15, %rbx
	movq	%rbx, 128(%r8)
	movq	%rcx, %rbx
	imulq	8(%rdx), %rbx
	addq	%rbx, %r11
	movq	%rcx, %rbx
	movq	%r11, 136(%r8)
	imulq	16(%rdx), %rbx
	addq	%rbx, %r10
	movq	%rcx, %rbx
	movq	%r10, 144(%r8)
	imulq	24(%rdx), %rbx
	addq	%rbx, %r9
	movq	%rcx, %rbx
	movq	%r9, 152(%r8)
	imulq	32(%rdx), %rbx
	addq	%rbx, %rdi
	movq	%rcx, %rbx
	movq	%rdi, 160(%r8)
	imulq	40(%rdx), %rbx
	addq	%rbx, %r14
	movq	%rcx, %rbx
	movq	%r14, 168(%r8)
	imulq	48(%rdx), %rbx
	movq	-112(%rsp), %rsi
	addq	%rbx, %r13
	movq	%rcx, %rbx
	movq	%r13, 176(%r8)
	imulq	56(%rdx), %rbx
	addq	%rbx, %r12
	movq	%rcx, %rbx
	movq	%r12, 184(%r8)
	imulq	64(%rdx), %rbx
	addq	%rbx, %rbp
	movq	%rcx, %rbx
	movq	%rbp, 192(%r8)
	imulq	72(%rdx), %rbx
	leaq	(%rbx,%rsi), %rbx
	movq	%rcx, %rsi
	movq	%rbx, 200(%r8)
	imulq	80(%rdx), %rsi
	movq	%rsi, %r15
	addq	-104(%rsp), %r15
	movq	%rcx, %rsi
	movq	%r15, 208(%r8)
	movq	%r15, -112(%rsp)
	imulq	88(%rdx), %rsi
	movq	%rsi, %r15
	addq	-96(%rsp), %r15
	movq	%rcx, %rsi
	movq	%r15, 216(%r8)
	movq	%r15, -104(%rsp)
	imulq	96(%rdx), %rsi
	movq	%rsi, %r15
	addq	-88(%rsp), %r15
	movq	%rcx, %rsi
	movq	%r15, 224(%r8)
	movq	%r15, -96(%rsp)
	imulq	104(%rdx), %rsi
	movq	%rsi, %r15
	addq	-80(%rsp), %r15
	movq	%r15, 232(%r8)
	movq	%r15, -88(%rsp)
	movq	%rcx, %r15
	imulq	112(%rdx), %r15
	addq	-72(%rsp), %r15
	movq	%r15, -80(%rsp)
	movq	%r15, 240(%r8)
	movq	%rcx, %r15
	imulq	120(%rdx), %r15
	movq	%r15, %rsi
	addq	-64(%rsp), %rsi
	movq	%rcx, %r15
	movq	%rsi, -72(%rsp)
	movq	%rsi, 248(%r8)
	imulq	128(%rdx), %r15
	movq	%r15, %rsi
	addq	-56(%rsp), %rsi
	movq	%rcx, %r15
	movq	%rsi, 256(%r8)
	movq	%rsi, -64(%rsp)
	imulq	136(%rdx), %r15
	movq	%r15, %rsi
	addq	-48(%rsp), %rsi
	movq	%rcx, %r15
	movq	%rsi, 264(%r8)
	movq	%rsi, -56(%rsp)
	imulq	144(%rdx), %r15
	movq	%r15, %rsi
	addq	-40(%rsp), %rsi
	movq	%rcx, %r15
	movq	%rsi, 272(%r8)
	movq	%rsi, -48(%rsp)
	imulq	152(%rdx), %r15
	movq	%r15, %rsi
	addq	-32(%rsp), %rsi
	movq	%rcx, %r15
	movq	%rsi, 280(%r8)
	movq	%rsi, -40(%rsp)
	imulq	160(%rdx), %r15
	movq	%r15, %rsi
	addq	-24(%rsp), %rsi
	movq	%rcx, %r15
	movq	%rsi, 288(%r8)
	movq	%rsi, -32(%rsp)
	imulq	168(%rdx), %r15
	movq	%r15, %rsi
	addq	-16(%rsp), %rsi
	movq	%rcx, %r15
	movq	%rsi, 296(%r8)
	movq	%rsi, -24(%rsp)
	imulq	176(%rdx), %r15
	movq	%r15, %rsi
	addq	-8(%rsp), %rsi
	movq	%rcx, %r15
	movq	%rsi, 304(%r8)
	movq	%rsi, -16(%rsp)
	imulq	184(%rdx), %r15
	movq	%r15, %rsi
	addq	(%rsp), %rsi
	movq	%rcx, %r15
	movq	%rsi, -8(%rsp)
	movq	%rsi, 312(%r8)
	imulq	192(%rdx), %r15
	movq	%r15, %rsi
	addq	8(%rsp), %rsi
	movq	%rcx, %r15
	movq	%rsi, 320(%r8)
	movq	%rsi, (%rsp)
	imulq	200(%rdx), %r15
	movq	%r15, %rsi
	addq	16(%rsp), %rsi
	movq	%rcx, %r15
	movq	%rsi, 328(%r8)
	movq	%rsi, 8(%rsp)
	imulq	208(%rdx), %r15
	movq	%r15, %rsi
	addq	24(%rsp), %rsi
	movq	%rcx, %r15
	movq	%rsi, 336(%r8)
	movq	%rsi, 16(%rsp)
	imulq	216(%rdx), %r15
	movq	%r15, %rsi
	addq	32(%rsp), %rsi
	movq	%rcx, %r15
	movq	%rsi, 344(%r8)
	movq	%rsi, 24(%rsp)
	imulq	224(%rdx), %r15
	movq	%r15, %rsi
	addq	40(%rsp), %rsi
	movq	%rcx, %r15
	movq	%rsi, 352(%r8)
	movq	%rsi, 32(%rsp)
	movq	%rcx, %rsi
	imulq	232(%rdx), %r15
	addq	48(%rsp), %r15
	movq	%r15, 360(%r8)
	movq	%r15, 40(%rsp)
	imulq	240(%rdx), %rsi
	addq	%rsi, %rax
	movq	%rax, 368(%r8)
	movq	%rax, 48(%rsp)
	imulq	248(%rdx), %rcx
	movq	-120(%rsp), %rax
	addq	376(%r8), %rcx
	movq	%rcx, 376(%r8)
	movq	136(%rax), %rax
	movq	%rax, %rsi
	imulq	(%rdx), %rsi
	addq	%rsi, %r11
	movq	-112(%rsp), %rsi
	movq	%r11, 136(%r8)
	movq	%rax, %r11
	imulq	8(%rdx), %r11
	addq	%r11, %r10
	movq	%rax, %r11
	movq	%r10, 144(%r8)
	imulq	16(%rdx), %r11
	addq	%r11, %r9
	movq	%rax, %r11
	movq	%r9, 152(%r8)
	imulq	24(%rdx), %r11
	addq	%r11, %rdi
	movq	%rax, %r11
	movq	%rdi, 160(%r8)
	imulq	32(%rdx), %r11
	addq	%r11, %r14
	movq	%rax, %r11
	movq	%r14, 168(%r8)
	imulq	40(%rdx), %r11
	addq	%r11, %r13
	movq	%rax, %r11
	movq	%r13, 176(%r8)
	imulq	48(%rdx), %r11
	addq	%r11, %r12
	movq	%rax, %r11
	movq	%r12, 184(%r8)
	imulq	56(%rdx), %r11
	addq	%r11, %rbp
	movq	%rax, %r11
	movq	%rbp, 192(%r8)
	imulq	64(%rdx), %r11
	addq	%r11, %rbx
	movq	%rax, %r11
	movq	%rbx, 200(%r8)
	imulq	72(%rdx), %r11
	leaq	(%r11,%rsi), %r11
	movq	%rax, %rsi
	movq	%r11, 208(%r8)
	imulq	80(%rdx), %rsi
	movq	%rsi, %r15
	addq	-104(%rsp), %r15
	movq	%rax, %rsi
	movq	%r15, 216(%r8)
	movq	%r15, -112(%rsp)
	imulq	88(%rdx), %rsi
	movq	%rsi, %r15
	addq	-96(%rsp), %r15
	movq	%rax, %rsi
	movq	%r15, 224(%r8)
	movq	%r15, -104(%rsp)
	imulq	96(%rdx), %rsi
	movq	%rsi, %r15
	addq	-88(%rsp), %r15
	movq	%rax, %rsi
	movq	%r15, -96(%rsp)
	movq	%r15, 232(%r8)
	imulq	104(%rdx), %rsi
	movq	%rsi, %r15
	addq	-80(%rsp), %r15
	movq	%rax, %rsi
	movq	%r15, 240(%r8)
	movq	%r15, -88(%rsp)
	imulq	112(%rdx), %rsi
	addq	-72(%rsp), %rsi
	movq	%rsi, 248(%r8)
	movq	%rsi, -80(%rsp)
	movq	%rax, %rsi
	imulq	120(%rdx), %rsi
	addq	-64(%rsp), %rsi
	movq	%rsi, 256(%r8)
	movq	%rsi, -72(%rsp)
	movq	%rax, %rsi
	imulq	128(%rdx), %rsi
	addq	-56(%rsp), %rsi
	movq	%rsi, 264(%r8)
	movq	%rsi, -64(%rsp)
	movq	%rax, %rsi
	imulq	136(%rdx), %rsi
	addq	-48(%rsp), %rsi
	movq	%rsi, 272(%r8)
	movq	%rsi, -56(%rsp)
	movq	%rax, %rsi
	imulq	144(%rdx), %rsi
	addq	-40(%rsp), %rsi
	movq	%rsi, 280(%r8)
	movq	%rsi, -48(%rsp)
	movq	%rax, %rsi
	imulq	152(%rdx), %rsi
	addq	-32(%rsp), %rsi
	movq	%rsi, -40(%rsp)
	movq	%rsi, 288(%r8)
	movq	%rax, %rsi
	imulq	160(%rdx), %rsi
	addq	-24(%rsp), %rsi
	movq	%rsi, -32(%rsp)
	movq	%rsi, 296(%r8)
	movq	%rax, %rsi
	imulq	168(%rdx), %rsi
	addq	-16(%rsp), %rsi
	movq	%rsi, 304(%r8)
	movq	%rsi, -24(%rsp)
	movq	%rax, %rsi
	imulq	176(%rdx), %rsi
	addq	-8(%rsp), %rsi
	movq	%rsi, 312(%r8)
	movq	%rsi, -16(%rsp)
	movq	%rax, %rsi
	imulq	184(%rdx), %rsi
	addq	(%rsp), %rsi
	movq	%rsi, 320(%r8)
	movq	%rsi, -8(%rsp)
	movq	%rax, %rsi
	imulq	192(%rdx), %rsi
	addq	8(%rsp), %rsi
	movq	%rsi, 328(%r8)
	movq	%rsi, (%rsp)
	movq	%rax, %rsi
	imulq	200(%rdx), %rsi
	addq	16(%rsp), %rsi
	movq	%rsi, 336(%r8)
	movq	%rsi, 8(%rsp)
	movq	%rax, %rsi
	imulq	208(%rdx), %rsi
	addq	24(%rsp), %rsi
	movq	%rsi, 344(%r8)
	movq	%rsi, 16(%rsp)
	movq	%rax, %rsi
	imulq	216(%rdx), %rsi
	addq	32(%rsp), %rsi
	movq	%rsi, 24(%rsp)
	movq	%rsi, 352(%r8)
	movq	%rax, %rsi
	imulq	224(%rdx), %rsi
	addq	40(%rsp), %rsi
	movq	%rsi, 32(%rsp)
	movq	%rsi, 360(%r8)
	movq	%rax, %rsi
	imulq	232(%rdx), %rsi
	addq	48(%rsp), %rsi
	movq	%rsi, 368(%r8)
	movq	%rsi, 40(%rsp)
	movq	%rax, %rsi
	imulq	240(%rdx), %rsi
	addq	%rsi, %rcx
	movq	%rcx, 376(%r8)
	movq	%rcx, 48(%rsp)
	imulq	248(%rdx), %rax
	movq	-120(%rsp), %rcx
	addq	384(%r8), %rax
	movq	%rax, 384(%r8)
	movq	144(%rcx), %rcx
	movq	%rcx, %rsi
	imulq	(%rdx), %rsi
	addq	%rsi, %r10
	movq	-112(%rsp), %rsi
	movq	%r10, 144(%r8)
	movq	%rcx, %r10
	imulq	8(%rdx), %r10
	addq	%r10, %r9
	movq	%rcx, %r10
	movq	%r9, 152(%r8)
	imulq	16(%rdx), %r10
	addq	%r10, %rdi
	movq	%rcx, %r10
	movq	%rdi, 160(%r8)
	imulq	24(%rdx), %r10
	addq	%r10, %r14
	movq	%rcx, %r10
	movq	%r14, 168(%r8)
	imulq	32(%rdx), %r10
	addq	%r10, %r13
	movq	%rcx, %r10
	movq	%r13, 176(%r8)
	imulq	40(%rdx), %r10
	addq	%r10, %r12
	movq	%rcx, %r10
	movq	%r12, 184(%r8)
	imulq	48(%rdx), %r10
	addq	%r10, %rbp
	movq	%rcx, %r10
	movq	%rbp, 192(%r8)
	imulq	56(%rdx), %r10
	addq	%r10, %rbx
	movq	%rcx, %r10
	movq	%rbx, 200(%r8)
	imulq	64(%rdx), %r10
	addq	%r10, %r11
	movq	%rcx, %r10
	movq	%r11, 208(%r8)
	imulq	72(%rdx), %r10
	leaq	(%r10,%rsi), %r10
	movq	%rcx, %rsi
	movq	%r10, 216(%r8)
	imulq	80(%rdx), %rsi
	movq	%rsi, %r15
	addq	-104(%rsp), %r15
	movq	%rcx, %rsi
	movq	%r15, 224(%r8)
	movq	%r15, -112(%rsp)
	imulq	88(%rdx), %rsi
	movq	%rsi, %r15
	addq	-96(%rsp), %r15
	movq	%rcx, %rsi
	movq	%r15, 232(%r8)
	movq	%r15, -104(%rsp)
	imulq	96(%rdx), %rsi
	movq	%rsi, %r15
	addq	-88(%rsp), %r15
	movq	%rcx, %rsi
	movq	%r15, 240(%r8)
	movq	%r15, -96(%rsp)
	imulq	104(%rdx), %rsi
	addq	-80(%rsp), %rsi
	movq	%rsi, 248(%r8)
	movq	%rsi, -88(%rsp)
	movq	%rcx, %rsi
	imulq	112(%rdx), %rsi
	addq	-72(%rsp), %rsi
	movq	%rsi, 256(%r8)
	movq	%rsi, -80(%rsp)
	movq	%rcx, %rsi
	imulq	120(%rdx), %rsi
	addq	-64(%rsp), %rsi
	movq	%rsi, 264(%r8)
	movq	%rsi, -72(%rsp)
	movq	%rcx, %rsi
	imulq	128(%rdx), %rsi
	addq	-56(%rsp), %rsi
	movq	%rsi, -64(%rsp)
	movq	%rsi, 272(%r8)
	movq	%rcx, %rsi
	imulq	136(%rdx), %rsi
	addq	-48(%rsp), %rsi
	movq	%rsi, -56(%rsp)
	movq	%rsi, 280(%r8)
	movq	%rcx, %rsi
	imulq	144(%rdx), %rsi
	addq	-40(%rsp), %rsi
	movq	%rsi, 288(%r8)
	movq	%rsi, -48(%rsp)
	movq	%rcx, %rsi
	imulq	152(%rdx), %rsi
	addq	-32(%rsp), %rsi
	movq	%rsi, 296(%r8)
	movq	%rsi, -40(%rsp)
	movq	%rcx, %rsi
	imulq	160(%rdx), %rsi
	addq	-24(%rsp), %rsi
	movq	%rsi, 304(%r8)
	movq	%rsi, -32(%rsp)
	movq	%rcx, %rsi
	imulq	168(%rdx), %rsi
	addq	-16(%rsp), %rsi
	movq	%rsi, 312(%r8)
	movq	%rsi, -24(%rsp)
	movq	%rcx, %rsi
	imulq	176(%rdx), %rsi
	addq	-8(%rsp), %rsi
	movq	%rsi, 320(%r8)
	movq	%rsi, -16(%rsp)
	movq	%rcx, %rsi
	imulq	184(%rdx), %rsi
	addq	(%rsp), %rsi
	movq	%rsi, 328(%r8)
	movq	%rsi, -8(%rsp)
	movq	%rcx, %rsi
	imulq	192(%rdx), %rsi
	addq	8(%rsp), %rsi
	movq	%rsi, (%rsp)
	movq	%rsi, 336(%r8)
	movq	%rcx, %rsi
	imulq	200(%rdx), %rsi
	addq	16(%rsp), %rsi
	movq	%rsi, 8(%rsp)
	movq	%rsi, 344(%r8)
	movq	%rcx, %rsi
	imulq	208(%rdx), %rsi
	addq	24(%rsp), %rsi
	movq	%rsi, 352(%r8)
	movq	%rsi, 16(%rsp)
	movq	%rcx, %rsi
	imulq	216(%rdx), %rsi
	addq	32(%rsp), %rsi
	movq	%rsi, 360(%r8)
	movq	%rsi, 24(%rsp)
	movq	%rcx, %rsi
	imulq	224(%rdx), %rsi
	addq	40(%rsp), %rsi
	movq	%rsi, 368(%r8)
	movq	%rsi, 32(%rsp)
	movq	%rcx, %rsi
	imulq	232(%rdx), %rsi
	addq	48(%rsp), %rsi
	movq	%rsi, 376(%r8)
	movq	%rsi, 40(%rsp)
	movq	%rcx, %rsi
	imulq	240(%rdx), %rsi
	addq	%rsi, %rax
	movq	%rax, 384(%r8)
	movq	%rax, 48(%rsp)
	imulq	248(%rdx), %rcx
	movq	-120(%rsp), %rax
	addq	392(%r8), %rcx
	movq	%rcx, 392(%r8)
	movq	152(%rax), %rax
	movq	%rax, %r15
	imulq	(%rdx), %r15
	addq	%r15, %r9
	movq	%rax, %r15
	movq	%r9, 152(%r8)
	movq	%rax, %r9
	imulq	8(%rdx), %r9
	addq	%r9, %rdi
	movq	%rax, %r9
	movq	%rdi, 160(%r8)
	imulq	16(%rdx), %r9
	addq	%r9, %r14
	movq	%rax, %r9
	movq	%r14, 168(%r8)
	imulq	24(%rdx), %r9
	addq	%r9, %r13
	movq	%rax, %r9
	movq	%r13, 176(%r8)
	imulq	32(%rdx), %r9
	movq	-112(%rsp), %rsi
	addq	%r9, %r12
	movq	%rax, %r9
	movq	%r12, 184(%r8)
	imulq	40(%rdx), %r9
	addq	%r9, %rbp
	movq	%rax, %r9
	movq	%rbp, 192(%r8)
	imulq	48(%rdx), %r9
	addq	%r9, %rbx
	movq	%rax, %r9
	movq	%rbx, 200(%r8)
	imulq	56(%rdx), %r9
	addq	%r9, %r11
	movq	%rax, %r9
	movq	%r11, 208(%r8)
	imulq	64(%rdx), %r9
	addq	%r9, %r10
	movq	%rax, %r9
	movq	%r10, 216(%r8)
	imulq	72(%rdx), %r9
	leaq	(%r9,%rsi), %r9
	movq	%rax, %rsi
	movq	%r9, 224(%r8)
	imulq	80(%rdx), %r15
	addq	-104(%rsp), %r15
	movq	%r15, 232(%r8)
	movq	%r15, -112(%rsp)
	movq	%rax, %r15
	imulq	88(%rdx), %r15
	addq	-96(%rsp), %r15
	movq	%r15, 240(%r8)
	movq	%r15, -104(%rsp)
	movq	%rax, %r15
	imulq	96(%rdx), %rsi
	addq	-88(%rsp), %rsi
	movq	%rsi, 248(%r8)
	movq	%rsi, -96(%rsp)
	imulq	104(%rdx), %r15
	movq	%r15, %rsi
	addq	-80(%rsp), %rsi
	movq	%rax, %r15
	movq	%rsi, 256(%r8)
	movq	%rsi, -88(%rsp)
	imulq	112(%rdx), %r15
	movq	%r15, %rsi
	addq	-72(%rsp), %rsi
	movq	%rax, %r15
	movq	%rsi, -80(%rsp)
	movq	%rsi, 264(%r8)
	imulq	120(%rdx), %r15
	movq	%r15, %rsi
	addq	-64(%rsp), %rsi
	movq	%rax, %r15
	movq	%rsi, 272(%r8)
	movq	%rsi, -72(%rsp)
	imulq	128(%rdx), %r15
	movq	%r15, %rsi
	addq	-56(%rsp), %rsi
	movq	%rax, %r15
	movq	%rsi, 280(%r8)
	movq	%rsi, -64(%rsp)
	imulq	136(%rdx), %r15
	movq	%r15, %rsi
	addq	-48(%rsp), %rsi
	movq	%rax, %r15
	movq	%rsi, 288(%r8)
	movq	%rsi, -56(%rsp)
	imulq	144(%rdx), %r15
	movq	%r15, %rsi
	addq	-40(%rsp), %rsi
	movq	%rax, %r15
	movq	%rsi, 296(%r8)
	movq	%rsi, -48(%rsp)
	imulq	152(%rdx), %r15
	movq	%r15, %rsi
	addq	-32(%rsp), %rsi
	movq	%rax, %r15
	movq	%rsi, 304(%r8)
	movq	%rsi, -40(%rsp)
	imulq	160(%rdx), %r15
	movq	%r15, %rsi
	addq	-24(%rsp), %rsi
	movq	%rax, %r15
	movq	%rsi, 312(%r8)
	movq	%rsi, -32(%rsp)
	imulq	168(%rdx), %r15
	movq	%r15, %rsi
	addq	-16(%rsp), %rsi
	movq	%rax, %r15
	movq	%rsi, 320(%r8)
	movq	%rsi, -24(%rsp)
	imulq	176(%rdx), %r15
	movq	%r15, %rsi
	addq	-8(%rsp), %rsi
	movq	%rax, %r15
	movq	%rsi, -16(%rsp)
	movq	%rsi, 328(%r8)
	imulq	184(%rdx), %r15
	movq	%r15, %rsi
	addq	(%rsp), %rsi
	movq	%rax, %r15
	movq	%rsi, 336(%r8)
	movq	%rsi, -8(%rsp)
	imulq	192(%rdx), %r15
	movq	%r15, %rsi
	addq	8(%rsp), %rsi
	movq	%rax, %r15
	movq	%rsi, 344(%r8)
	movq	%rsi, (%rsp)
	imulq	200(%rdx), %r15
	movq	%r15, %rsi
	addq	16(%rsp), %rsi
	movq	%rax, %r15
	movq	%rsi, 352(%r8)
	movq	%rsi, 8(%rsp)
	imulq	208(%rdx), %r15
	movq	%r15, %rsi
	addq	24(%rsp), %rsi
	movq	%rax, %r15
	movq	%rsi, 360(%r8)
	movq	%rsi, 16(%rsp)
	imulq	216(%rdx), %r15
	movq	%r15, %rsi
	addq	32(%rsp), %rsi
	movq	%rax, %r15
	movq	%rsi, 368(%r8)
	movq	%rsi, 24(%rsp)
	imulq	224(%rdx), %r15
	movq	%r15, %rsi
	addq	40(%rsp), %rsi
	movq	%rax, %r15
	movq	%rsi, 376(%r8)
	movq	%rsi, 32(%rsp)
	imulq	232(%rdx), %r15
	addq	48(%rsp), %r15
	movq	%r15, 384(%r8)
	movq	%r15, 40(%rsp)
	movq	%rax, %r15
	imulq	240(%rdx), %r15
	addq	%r15, %rcx
	movq	%rcx, 392(%r8)
	movq	%rcx, 48(%rsp)
	imulq	248(%rdx), %rax
	addq	400(%r8), %rax
	movq	-120(%rsp), %rcx
	movq	-112(%rsp), %rsi
	movq	%rax, 400(%r8)
	movq	160(%rcx), %rcx
	movq	%rcx, %r15
	imulq	(%rdx), %r15
	addq	%r15, %rdi
	movq	%rdi, 160(%r8)
	movq	%rcx, %rdi
	imulq	8(%rdx), %rdi
	addq	%rdi, %r14
	movq	%rcx, %rdi
	movq	%r14, 168(%r8)
	imulq	16(%rdx), %rdi
	addq	%rdi, %r13
	movq	%rcx, %rdi
	movq	%r13, 176(%r8)
	imulq	24(%rdx), %rdi
	addq	%rdi, %r12
	movq	%rcx, %rdi
	movq	%r12, 184(%r8)
	imulq	32(%rdx), %rdi
	addq	%rdi, %rbp
	movq	%rcx, %rdi
	movq	%rbp, 192(%r8)
	imulq	40(%rdx), %rdi
	addq	%rdi, %rbx
	movq	%rcx, %rdi
	movq	%rbx, 200(%r8)
	imulq	48(%rdx), %rdi
	addq	%rdi, %r11
	movq	%rcx, %rdi
	movq	%r11, 208(%r8)
	imulq	56(%rdx), %rdi
	addq	%rdi, %r10
	movq	%rcx, %rdi
	movq	%r10, 216(%r8)
	imulq	64(%rdx), %rdi
	addq	%rdi, %r9
	movq	%rcx, %rdi
	movq	%r9, 224(%r8)
	imulq	72(%rdx), %rdi
	leaq	(%rdi,%rsi), %rdi
	movq	%rcx, %rsi
	movq	%rdi, 232(%r8)
	movq	%rdi, -112(%rsp)
	movq	%rcx, %rdi
	imulq	80(%rdx), %rdi
	movq	%rdi, %r15
	addq	-104(%rsp), %r15
	movq	%rcx, %rdi
	movq	%r15, 240(%r8)
	imulq	88(%rdx), %rdi
	addq	-96(%rsp), %rdi
	movq	%rdi, -104(%rsp)
	movq	%rdi, 248(%r8)
	movq	%rcx, %rdi
	imulq	96(%rdx), %rdi
	addq	-88(%rsp), %rdi
	movq	%rdi, 256(%r8)
	movq	%rdi, -96(%rsp)
	movq	%rcx, %rdi
	imulq	104(%rdx), %rdi
	addq	-80(%rsp), %rdi
	movq	%rdi, 264(%r8)
	movq	%rdi, -88(%rsp)
	movq	%rcx, %rdi
	imulq	112(%rdx), %rdi
	addq	-72(%rsp), %rdi
	movq	%rdi, 272(%r8)
	movq	%rdi, -80(%rsp)
	movq	%rcx, %rdi
	imulq	120(%rdx), %rdi
	addq	-64(%rsp), %rdi
	movq	%rdi, 280(%r8)
	movq	%rdi, -72(%rsp)
	movq	%rcx, %rdi
	imulq	128(%rdx), %rdi
	addq	-56(%rsp), %rdi
	movq	%rdi, 288(%r8)
	movq	%rdi, -64(%rsp)
	movq	%rcx, %rdi
	imulq	136(%rdx), %rdi
	addq	-48(%rsp), %rdi
	movq	%rdi, 296(%r8)
	movq	%rdi, -56(%rsp)
	movq	%rcx, %rdi
	imulq	144(%rdx), %rdi
	addq	-40(%rsp), %rdi
	movq	%rdi, 304(%r8)
	movq	%rdi, -48(%rsp)
	imulq	152(%rdx), %rsi
	movq	%rsi, %rdi
	addq	-32(%rsp), %rdi
	movq	%rcx, %rsi
	movq	%rdi, -40(%rsp)
	movq	%rdi, 312(%r8)
	imulq	160(%rdx), %rsi
	movq	%rsi, %rdi
	addq	-24(%rsp), %rdi
	movq	%rcx, %rsi
	movq	%rdi, 320(%r8)
	movq	%rdi, -32(%rsp)
	imulq	168(%rdx), %rsi
	movq	%rsi, %rdi
	addq	-16(%rsp), %rdi
	movq	%rcx, %rsi
	movq	%rdi, 328(%r8)
	movq	%rdi, -24(%rsp)
	imulq	176(%rdx), %rsi
	movq	%rsi, %rdi
	addq	-8(%rsp), %rdi
	movq	%rcx, %rsi
	movq	%rdi, 336(%r8)
	movq	%rdi, -16(%rsp)
	imulq	184(%rdx), %rsi
	movq	%rsi, %rdi
	addq	(%rsp), %rdi
	movq	%rcx, %rsi
	movq	%rdi, 344(%r8)
	movq	%rdi, -8(%rsp)
	imulq	192(%rdx), %rsi
	movq	%rsi, %rdi
	addq	8(%rsp), %rdi
	movq	%rcx, %rsi
	movq	%rdi, 352(%r8)
	movq	%rdi, (%rsp)
	imulq	200(%rdx), %rsi
	movq	%rsi, %rdi
	addq	16(%rsp), %rdi
	movq	%rcx, %rsi
	movq	%rdi, 360(%r8)
	movq	%rdi, 8(%rsp)
	imulq	208(%rdx), %rsi
	movq	%rsi, %rdi
	addq	24(%rsp), %rdi
	movq	%rcx, %rsi
	movq	%rdi, 368(%r8)
	movq	%rdi, 16(%rsp)
	imulq	216(%rdx), %rsi
	movq	%rsi, %rdi
	addq	32(%rsp), %rdi
	movq	%rcx, %rsi
	movq	%rdi, 24(%rsp)
	movq	%rdi, 376(%r8)
	imulq	224(%rdx), %rsi
	movq	%rsi, %rdi
	addq	40(%rsp), %rdi
	movq	%rcx, %rsi
	movq	%rdi, 384(%r8)
	movq	%rdi, 32(%rsp)
	movq	%rcx, %rdi
	imulq	232(%rdx), %rsi
	addq	48(%rsp), %rsi
	movq	%rsi, 392(%r8)
	movq	%rsi, 40(%rsp)
	imulq	240(%rdx), %rdi
	addq	%rdi, %rax
	movq	%rax, 400(%r8)
	movq	%rax, 48(%rsp)
	imulq	248(%rdx), %rcx
	movq	-120(%rsp), %rax
	addq	408(%r8), %rcx
	movq	%rcx, 408(%r8)
	movq	168(%rax), %rax
	movq	%rax, %rdi
	imulq	(%rdx), %rdi
	addq	%rdi, %r14
	movq	%r14, 168(%r8)
	movq	%rax, %r14
	imulq	8(%rdx), %r14
	addq	%r14, %r13
	movq	%rax, %r14
	movq	%r13, 176(%r8)
	imulq	16(%rdx), %r14
	addq	%r14, %r12
	movq	%rax, %r14
	movq	%r12, 184(%r8)
	imulq	24(%rdx), %r14
	addq	%r14, %rbp
	movq	%rax, %r14
	movq	%rbp, 192(%r8)
	imulq	32(%rdx), %r14
	addq	%r14, %rbx
	movq	%rax, %r14
	movq	%rbx, 200(%r8)
	imulq	40(%rdx), %r14
	addq	%r14, %r11
	movq	%rax, %r14
	movq	%r11, 208(%r8)
	imulq	48(%rdx), %r14
	addq	%r14, %r10
	movq	%rax, %r14
	movq	%r10, 216(%r8)
	imulq	56(%rdx), %r14
	addq	%r14, %r9
	movq	%rax, %r14
	movq	%r9, 56(%rsp)
	movq	%r9, 224(%r8)
	movq	%rax, %r9
	imulq	64(%rdx), %r14
	movq	-112(%rsp), %rdi
	addq	%r14, %rdi
	movq	%rax, %r14
	movq	%rdi, 232(%r8)
	imulq	72(%rdx), %r14
	addq	%r14, %r15
	movq	%rax, %r14
	movq	%r15, 240(%r8)
	imulq	80(%rdx), %r14
	movq	%r14, %rsi
	movq	-104(%rsp), %r14
	addq	%rsi, %r14
	movq	%rax, %rsi
	movq	%r14, 248(%r8)
	imulq	88(%rdx), %r9
	addq	-96(%rsp), %r9
	movq	%r9, 256(%r8)
	movq	%r9, -112(%rsp)
	movq	%rax, %r9
	imulq	96(%rdx), %r9
	addq	-88(%rsp), %r9
	movq	%r9, 264(%r8)
	movq	%r9, -104(%rsp)
	movq	%rax, %r9
	imulq	104(%rdx), %r9
	addq	-80(%rsp), %r9
	movq	%r9, 272(%r8)
	movq	%r9, -96(%rsp)
	movq	%rax, %r9
	imulq	112(%rdx), %r9
	addq	-72(%rsp), %r9
	movq	%r9, 280(%r8)
	movq	%r9, -88(%rsp)
	movq	%rax, %r9
	imulq	120(%rdx), %r9
	addq	-64(%rsp), %r9
	movq	%r9, -80(%rsp)
	movq	%r9, 288(%r8)
	movq	%rax, %r9
	imulq	128(%rdx), %r9
	addq	-56(%rsp), %r9
	movq	%r9, -72(%rsp)
	movq	%r9, 296(%r8)
	movq	%rax, %r9
	imulq	136(%rdx), %r9
	addq	-48(%rsp), %r9
	movq	%r9, 304(%r8)
	movq	%r9, -64(%rsp)
	movq	%rax, %r9
	imulq	144(%rdx), %r9
	addq	-40(%rsp), %r9
	movq	%r9, 312(%r8)
	movq	%r9, -56(%rsp)
	movq	%rax, %r9
	imulq	152(%rdx), %r9
	addq	-32(%rsp), %r9
	movq	%r9, 320(%r8)
	movq	%r9, -48(%rsp)
	movq	%rax, %r9
	imulq	160(%rdx), %r9
	addq	-24(%rsp), %r9
	movq	%r9, 328(%r8)
	movq	%r9, -40(%rsp)
	movq	%rax, %r9
	imulq	168(%rdx), %r9
	addq	-16(%rsp), %r9
	movq	%r9, 336(%r8)
	movq	%r9, -32(%rsp)
	imulq	176(%rdx), %rsi
	movq	%rsi, %r9
	addq	-8(%rsp), %r9
	movq	%rax, %rsi
	movq	%r9, 344(%r8)
	movq	%r9, -24(%rsp)
	imulq	184(%rdx), %rsi
	movq	%rsi, %r9
	addq	(%rsp), %r9
	movq	%rax, %rsi
	movq	%r9, 352(%r8)
	movq	%r9, -16(%rsp)
	imulq	192(%rdx), %rsi
	movq	%rsi, %r9
	addq	8(%rsp), %r9
	movq	%rax, %rsi
	movq	%r9, -8(%rsp)
	movq	%r9, 360(%r8)
	imulq	200(%rdx), %rsi
	movq	%rsi, %r9
	addq	16(%rsp), %r9
	movq	%rax, %rsi
	movq	%r9, 368(%r8)
	movq	%r9, (%rsp)
	imulq	208(%rdx), %rsi
	movq	%rsi, %r9
	addq	24(%rsp), %r9
	movq	%rax, %rsi
	movq	%r9, 376(%r8)
	movq	%r9, 8(%rsp)
	imulq	216(%rdx), %rsi
	movq	%rsi, %r9
	addq	32(%rsp), %r9
	movq	%rax, %rsi
	movq	%r9, 384(%r8)
	movq	%r9, 16(%rsp)
	imulq	224(%rdx), %rsi
	movq	%rsi, %r9
	addq	40(%rsp), %r9
	movq	%rax, %rsi
	movq	%r9, 392(%r8)
	movq	%r9, 24(%rsp)
	movq	%rax, %r9
	imulq	232(%rdx), %rsi
	addq	48(%rsp), %rsi
	movq	%rsi, 400(%r8)
	movq	%rsi, 32(%rsp)
	imulq	240(%rdx), %r9
	addq	%r9, %rcx
	movq	%rcx, 408(%r8)
	movq	%rcx, 40(%rsp)
	imulq	248(%rdx), %rax
	movq	-120(%rsp), %rcx
	addq	416(%r8), %rax
	movq	%rax, 416(%r8)
	movq	176(%rcx), %rcx
	movq	%rcx, %r9
	movq	%rcx, %rsi
	imulq	(%rdx), %r9
	addq	%r9, %r13
	movq	%r13, 176(%r8)
	movq	%rcx, %r13
	imulq	8(%rdx), %r13
	addq	%r13, %r12
	movq	%rcx, %r13
	movq	%r12, 184(%r8)
	imulq	16(%rdx), %r13
	movq	56(%rsp), %r9
	addq	%r13, %rbp
	movq	%rcx, %r13
	movq	%rbp, 192(%r8)
	imulq	24(%rdx), %r13
	addq	%r13, %rbx
	movq	%rcx, %r13
	movq	%rbx, 200(%r8)
	imulq	32(%rdx), %r13
	addq	%r13, %r11
	movq	%rcx, %r13
	movq	%r11, 208(%r8)
	imulq	40(%rdx), %r13
	addq	%r13, %r10
	movq	%rcx, %r13
	movq	%r10, 216(%r8)
	imulq	48(%rdx), %r13
	addq	%r13, %r9
	movq	%rcx, %r13
	movq	%r9, 224(%r8)
	imulq	56(%rdx), %r13
	addq	%r13, %rdi
	movq	-112(%rsp), %r13
	movq	%rdi, 232(%r8)
	movq	%rdi, 48(%rsp)
	movq	%rcx, %rdi
	imulq	64(%rdx), %rdi
	addq	%rdi, %r15
	movq	%rcx, %rdi
	movq	%r15, 240(%r8)
	imulq	72(%rdx), %rdi
	addq	%rdi, %r14
	movq	%rcx, %rdi
	movq	%r14, 248(%r8)
	imulq	80(%rdx), %rdi
	addq	%rdi, %r13
	movq	%rcx, %rdi
	movq	%r13, 256(%r8)
	imulq	88(%rdx), %rdi
	addq	-104(%rsp), %rdi
	movq	%rdi, 264(%r8)
	movq	%rdi, -112(%rsp)
	movq	%rcx, %rdi
	imulq	96(%rdx), %rdi
	addq	-96(%rsp), %rdi
	movq	%rdi, -104(%rsp)
	movq	%rdi, 272(%r8)
	movq	%rcx, %rdi
	imulq	104(%rdx), %rdi
	addq	-88(%rsp), %rdi
	movq	%rdi, -96(%rsp)
	movq	%rdi, 280(%r8)
	movq	%rcx, %rdi
	imulq	112(%rdx), %rdi
	addq	-80(%rsp), %rdi
	movq	%rdi, 288(%r8)
	movq	%rdi, -88(%rsp)
	movq	%rcx, %rdi
	imulq	120(%rdx), %rdi
	addq	-72(%rsp), %rdi
	movq	%rdi, 296(%r8)
	movq	%rdi, -80(%rsp)
	movq	%rcx, %rdi
	imulq	128(%rdx), %rdi
	addq	-64(%rsp), %rdi
	movq	%rdi, 304(%r8)
	movq	%rdi, -72(%rsp)
	movq	%rcx, %rdi
	imulq	136(%rdx), %rdi
	addq	-56(%rsp), %rdi
	movq	%rdi, 312(%r8)
	movq	%rdi, -64(%rsp)
	movq	%rcx, %rdi
	imulq	144(%rdx), %rdi
	addq	-48(%rsp), %rdi
	movq	%rdi, 320(%r8)
	movq	%rdi, -56(%rsp)
	movq	%rcx, %rdi
	imulq	152(%rdx), %rdi
	addq	-40(%rsp), %rdi
	movq	%rdi, 328(%r8)
	movq	%rdi, -48(%rsp)
	movq	%rcx, %rdi
	imulq	160(%rdx), %rdi
	addq	-32(%rsp), %rdi
	movq	%rdi, -40(%rsp)
	movq	%rdi, 336(%r8)
	movq	%rcx, %rdi
	imulq	168(%rdx), %rdi
	addq	-24(%rsp), %rdi
	movq	%rdi, -32(%rsp)
	movq	%rdi, 344(%r8)
	movq	%rcx, %rdi
	imulq	176(%rdx), %rdi
	addq	-16(%rsp), %rdi
	movq	%rdi, 352(%r8)
	movq	%rdi, -24(%rsp)
	imulq	184(%rdx), %rsi
	movq	%rsi, %rdi
	addq	-8(%rsp), %rdi
	movq	%rcx, %rsi
	movq	%rdi, 360(%r8)
	movq	%rdi, -16(%rsp)
	imulq	192(%rdx), %rsi
	movq	%rsi, %rdi
	addq	(%rsp), %rdi
	movq	%rcx, %rsi
	movq	%rdi, 368(%r8)
	movq	%rdi, -8(%rsp)
	imulq	200(%rdx), %rsi
	movq	%rsi, %rdi
	addq	8(%rsp), %rdi
	movq	%rcx, %rsi
	movq	%rdi, 376(%r8)
	movq	%rdi, (%rsp)
	imulq	208(%rdx), %rsi
	movq	%rsi, %rdi
	addq	16(%rsp), %rdi
	movq	%rcx, %rsi
	movq	%rdi, 384(%r8)
	movq	%rdi, 8(%rsp)
	imulq	216(%rdx), %rsi
	movq	%rsi, %rdi
	addq	24(%rsp), %rdi
	movq	%rcx, %rsi
	movq	%rdi, 392(%r8)
	movq	%rdi, 16(%rsp)
	imulq	224(%rdx), %rsi
	movq	%rsi, %rdi
	addq	32(%rsp), %rdi
	movq	%rcx, %rsi
	movq	%rdi, 400(%r8)
	movq	%rdi, 24(%rsp)
	imulq	232(%rdx), %rsi
	addq	40(%rsp), %rsi
	movq	%rsi, 32(%rsp)
	movq	%rsi, 408(%r8)
	movq	%rcx, %rsi
	imulq	240(%rdx), %rsi
	movq	48(%rsp), %rdi
	addq	%rsi, %rax
	movq	%rax, 416(%r8)
	movq	%rax, 40(%rsp)
	imulq	248(%rdx), %rcx
	movq	-120(%rsp), %rax
	addq	424(%r8), %rcx
	movq	%rcx, 424(%r8)
	movq	184(%rax), %rax
	movq	%rax, %rsi
	imulq	(%rdx), %rsi
	addq	%rsi, %r12
	movq	%rax, %rsi
	movq	%r12, 184(%r8)
	movq	%rax, %r12
	imulq	8(%rdx), %r12
	addq	%r12, %rbp
	movq	%rax, %r12
	movq	%rbp, 192(%r8)
	imulq	16(%rdx), %r12
	addq	%r12, %rbx
	movq	%rax, %r12
	movq	%rbx, 200(%r8)
	imulq	24(%rdx), %r12
	addq	%r12, %r11
	movq	%rax, %r12
	movq	%r11, 208(%r8)
	imulq	32(%rdx), %r12
	addq	%r12, %r10
	movq	%rax, %r12
	movq	%r10, 216(%r8)
	imulq	40(%rdx), %r12
	addq	%r12, %r9
	movq	-112(%rsp), %r12
	movq	%r9, 224(%r8)
	movq	%r9, 56(%rsp)
	movq	%rax, %r9
	imulq	48(%rdx), %r9
	addq	%r9, %rdi
	movq	%rax, %r9
	movq	%rdi, 232(%r8)
	imulq	56(%rdx), %r9
	addq	%r9, %r15
	movq	%rax, %r9
	movq	%r15, 240(%r8)
	imulq	64(%rdx), %r9
	addq	%r9, %r14
	movq	%rax, %r9
	movq	%r14, 248(%r8)
	imulq	72(%rdx), %r9
	addq	%r9, %r13
	movq	%rax, %r9
	movq	%r13, 256(%r8)
	imulq	80(%rdx), %r9
	addq	%r9, %r12
	movq	%rax, %r9
	movq	%r12, 264(%r8)
	imulq	88(%rdx), %r9
	addq	-104(%rsp), %r9
	movq	%r9, 272(%r8)
	movq	%r9, -112(%rsp)
	movq	%rax, %r9
	imulq	96(%rdx), %r9
	addq	-96(%rsp), %r9
	movq	%r9, 280(%r8)
	movq	%r9, -104(%rsp)
	movq	%rax, %r9
	imulq	104(%rdx), %r9
	addq	-88(%rsp), %r9
	movq	%r9, 288(%r8)
	movq	%r9, -96(%rsp)
	movq	%rax, %r9
	imulq	112(%rdx), %r9
	addq	-80(%rsp), %r9
	movq	%r9, 296(%r8)
	movq	%r9, -88(%rsp)
	movq	%rax, %r9
	imulq	120(%rdx), %r9
	addq	-72(%rsp), %r9
	movq	%r9, 304(%r8)
	movq	%r9, -80(%rsp)
	movq	%rax, %r9
	imulq	128(%rdx), %r9
	addq	-64(%rsp), %r9
	movq	%r9, 312(%r8)
	movq	%r9, -72(%rsp)
	movq	%rax, %r9
	imulq	136(%rdx), %r9
	addq	-56(%rsp), %r9
	movq	%r9, -64(%rsp)
	movq	%r9, 320(%r8)
	movq	%rax, %r9
	imulq	144(%rdx), %r9
	addq	-48(%rsp), %r9
	movq	%r9, -56(%rsp)
	movq	%r9, 328(%r8)
	movq	%rax, %r9
	imulq	152(%rdx), %r9
	addq	-40(%rsp), %r9
	movq	%r9, 336(%r8)
	movq	%r9, -48(%rsp)
	movq	%rax, %r9
	imulq	160(%rdx), %r9
	addq	-32(%rsp), %r9
	movq	%r9, 344(%r8)
	movq	%r9, -40(%rsp)
	movq	%rax, %r9
	imulq	168(%rdx), %r9
	addq	-24(%rsp), %r9
	movq	%r9, 352(%r8)
	movq	%r9, -32(%rsp)
	movq	%rax, %r9
	imulq	176(%rdx), %r9
	addq	-16(%rsp), %r9
	movq	%r9, 360(%r8)
	movq	%r9, -24(%rsp)
	imulq	184(%rdx), %rsi
	movq	%rsi, %r9
	addq	-8(%rsp), %r9
	movq	%rax, %rsi
	movq	%r9, 368(%r8)
	movq	%r9, -16(%rsp)
	imulq	192(%rdx), %rsi
	movq	%rsi, %r9
	addq	(%rsp), %r9
	movq	%rax, %rsi
	movq	%r9, 376(%r8)
	movq	%r9, -8(%rsp)
	imulq	200(%rdx), %rsi
	movq	%rsi, %r9
	addq	8(%rsp), %r9
	movq	%rax, %rsi
	movq	%r9, 384(%r8)
	movq	%r9, (%rsp)
	imulq	208(%rdx), %rsi
	movq	%rsi, %r9
	addq	16(%rsp), %r9
	movq	%rax, %rsi
	movq	%r9, 8(%rsp)
	movq	%r9, 392(%r8)
	imulq	216(%rdx), %rsi
	movq	%rsi, %r9
	addq	24(%rsp), %r9
	movq	%rax, %rsi
	movq	%r9, 400(%r8)
	movq	%r9, 16(%rsp)
	imulq	224(%rdx), %rsi
	movq	%rsi, %r9
	addq	32(%rsp), %r9
	movq	%rax, %rsi
	movq	%r9, 408(%r8)
	movq	%r9, 24(%rsp)
	imulq	232(%rdx), %rsi
	movq	56(%rsp), %r9
	addq	40(%rsp), %rsi
	movq	%rsi, 416(%r8)
	movq	%rsi, 32(%rsp)
	movq	%rax, %rsi
	imulq	240(%rdx), %rsi
	addq	%rsi, %rcx
	movq	%rcx, 424(%r8)
	movq	%rcx, 40(%rsp)
	imulq	248(%rdx), %rax
	movq	-120(%rsp), %rcx
	addq	432(%r8), %rax
	movq	%rax, 432(%r8)
	movq	192(%rcx), %rcx
	movq	%rcx, %rsi
	imulq	(%rdx), %rsi
	addq	%rsi, %rbp
	movq	%rcx, %rsi
	movq	%rbp, 192(%r8)
	movq	%rcx, %rbp
	imulq	8(%rdx), %rbp
	addq	%rbp, %rbx
	movq	%rcx, %rbp
	movq	%rbx, 200(%r8)
	imulq	16(%rdx), %rbp
	addq	%rbp, %r11
	movq	%rcx, %rbp
	movq	%r11, 208(%r8)
	imulq	24(%rdx), %rbp
	addq	%rbp, %r10
	movq	%rcx, %rbp
	movq	%r10, 216(%r8)
	imulq	32(%rdx), %rbp
	addq	%rbp, %r9
	movq	%rcx, %rbp
	movq	%r9, 224(%r8)
	imulq	40(%rdx), %rbp
	addq	%rbp, %rdi
	movq	%rdi, 48(%rsp)
	movq	%rdi, 232(%r8)
	movq	%rcx, %rdi
	imulq	48(%rdx), %rdi
	movq	-112(%rsp), %rbp
	addq	%rdi, %r15
	movq	%rcx, %rdi
	movq	%r15, 240(%r8)
	imulq	56(%rdx), %rdi
	addq	%rdi, %r14
	movq	%rcx, %rdi
	movq	%r14, 248(%r8)
	imulq	64(%rdx), %rdi
	addq	%rdi, %r13
	movq	%rcx, %rdi
	movq	%r13, 256(%r8)
	imulq	72(%rdx), %rdi
	addq	%rdi, %r12
	movq	%rcx, %rdi
	movq	%r12, 264(%r8)
	imulq	80(%rdx), %rdi
	addq	%rdi, %rbp
	movq	%rcx, %rdi
	movq	%rbp, 272(%r8)
	imulq	88(%rdx), %rdi
	addq	-104(%rsp), %rdi
	movq	%rdi, 280(%r8)
	movq	%rdi, -112(%rsp)
	movq	%rcx, %rdi
	imulq	96(%rdx), %rdi
	addq	-96(%rsp), %rdi
	movq	%rdi, 288(%r8)
	movq	%rdi, -104(%rsp)
	movq	%rcx, %rdi
	imulq	104(%rdx), %rdi
	addq	-88(%rsp), %rdi
	movq	%rdi, 296(%r8)
	movq	%rdi, -96(%rsp)
	movq	%rcx, %rdi
	imulq	112(%rdx), %rdi
	addq	-80(%rsp), %rdi
	movq	%rdi, -88(%rsp)
	movq	%rdi, 304(%r8)
	movq	%rcx, %rdi
	imulq	120(%rdx), %rdi
	addq	-72(%rsp), %rdi
	movq	%rdi, -80(%rsp)
	movq	%rdi, 312(%r8)
	movq	%rcx, %rdi
	imulq	128(%rdx), %rdi
	addq	-64(%rsp), %rdi
	movq	%rdi, 320(%r8)
	movq	%rdi, -72(%rsp)
	movq	%rcx, %rdi
	imulq	136(%rdx), %rdi
	addq	-56(%rsp), %rdi
	movq	%rdi, 328(%r8)
	movq	%rdi, -64(%rsp)
	movq	%rcx, %rdi
	imulq	144(%rdx), %rdi
	addq	-48(%rsp), %rdi
	movq	%rdi, 336(%r8)
	movq	%rdi, -56(%rsp)
	movq	%rcx, %rdi
	imulq	152(%rdx), %rdi
	addq	-40(%rsp), %rdi
	movq	%rdi, 344(%r8)
	movq	%rdi, -48(%rsp)
	movq	%rcx, %rdi
	imulq	160(%rdx), %rdi
	addq	-32(%rsp), %rdi
	movq	%rdi, 352(%r8)
	movq	%rdi, -40(%rsp)
	movq	%rcx, %rdi
	imulq	168(%rdx), %rdi
	addq	-24(%rsp), %rdi
	movq	%rdi, 360(%r8)
	movq	%rdi, -32(%rsp)
	movq	%rcx, %rdi
	imulq	176(%rdx), %rdi
	addq	-16(%rsp), %rdi
	movq	%rdi, 368(%r8)
	movq	%rdi, -24(%rsp)
	imulq	184(%rdx), %rsi
	movq	%rsi, %rdi
	addq	-8(%rsp), %rdi
	movq	%rcx, %rsi
	movq	%rdi, -16(%rsp)
	movq	%rdi, 376(%r8)
	imulq	192(%rdx), %rsi
	movq	%rsi, %rdi
	addq	(%rsp), %rdi
	movq	%rcx, %rsi
	movq	%rdi, 384(%r8)
	movq	%rdi, -8(%rsp)
	imulq	200(%rdx), %rsi
	movq	%rsi, %rdi
	addq	8(%rsp), %rdi
	movq	%rcx, %rsi
	movq	%rdi, 392(%r8)
	movq	%rdi, (%rsp)
	imulq	208(%rdx), %rsi
	movq	%rsi, %rdi
	addq	16(%rsp), %rdi
	movq	%rcx, %rsi
	movq	%rdi, 400(%r8)
	movq	%rdi, 8(%rsp)
	imulq	216(%rdx), %rsi
	movq	%rsi, %rdi
	addq	24(%rsp), %rdi
	movq	%rcx, %rsi
	movq	%rdi, 408(%r8)
	movq	%rdi, 16(%rsp)
	imulq	224(%rdx), %rsi
	movq	%rsi, %rdi
	addq	32(%rsp), %rdi
	movq	%rcx, %rsi
	movq	%rdi, 416(%r8)
	movq	%rdi, 24(%rsp)
	imulq	232(%rdx), %rsi
	addq	40(%rsp), %rsi
	movq	%rsi, 424(%r8)
	movq	%rsi, 32(%rsp)
	movq	%rcx, %rsi
	imulq	240(%rdx), %rsi
	addq	%rsi, %rax
	movq	%rax, 432(%r8)
	movq	%rax, 40(%rsp)
	imulq	248(%rdx), %rcx
	movq	-120(%rsp), %rax
	addq	440(%r8), %rcx
	movq	%rcx, 440(%r8)
	movq	200(%rax), %rax
	movq	%rax, %rsi
	imulq	(%rdx), %rsi
	movq	48(%rsp), %rdi
	addq	%rbx, %rsi
	movq	%rax, %rbx
	movq	%rsi, 200(%r8)
	imulq	8(%rdx), %rbx
	addq	%rbx, %r11
	movq	%rax, %rbx
	movq	%r11, 208(%r8)
	imulq	16(%rdx), %rbx
	addq	%rbx, %r10
	movq	%rax, %rbx
	movq	%r10, 216(%r8)
	imulq	24(%rdx), %rbx
	addq	%rbx, %r9
	movq	%rax, %rbx
	movq	%r9, 224(%r8)
	movq	%r9, 56(%rsp)
	movq	%rax, %r9
	imulq	32(%rdx), %rbx
	addq	%rbx, %rdi
	movq	%rax, %rbx
	movq	%rdi, 232(%r8)
	imulq	40(%rdx), %rbx
	addq	%rbx, %r15
	movq	%rax, %rbx
	movq	%r15, 240(%r8)
	imulq	48(%rdx), %rbx
	addq	%rbx, %r14
	movq	%rax, %rbx
	movq	%r14, 248(%r8)
	imulq	56(%rdx), %rbx
	addq	%rbx, %r13
	movq	%rax, %rbx
	movq	%r13, 256(%r8)
	imulq	64(%rdx), %rbx
	addq	%rbx, %r12
	movq	%rax, %rbx
	movq	%r12, 264(%r8)
	imulq	72(%rdx), %rbx
	addq	%rbx, %rbp
	movq	%rax, %rbx
	movq	%rbp, 272(%r8)
	imulq	80(%rdx), %rbx
	movq	%rbx, %rsi
	movq	-112(%rsp), %rbx
	addq	%rsi, %rbx
	movq	%rax, %rsi
	movq	%rbx, 280(%r8)
	imulq	88(%rdx), %r9
	addq	-104(%rsp), %r9
	movq	%r9, -112(%rsp)
	movq	%r9, 288(%r8)
	movq	%rax, %r9
	imulq	96(%rdx), %r9
	addq	-96(%rsp), %r9
	movq	%r9, -104(%rsp)
	movq	%r9, 296(%r8)
	movq	%rax, %r9
	imulq	104(%rdx), %r9
	addq	-88(%rsp), %r9
	movq	%r9, 304(%r8)
	movq	%r9, -96(%rsp)
	movq	%rax, %r9
	imulq	112(%rdx), %r9
	addq	-80(%rsp), %r9
	movq	%r9, 312(%r8)
	movq	%r9, -88(%rsp)
	movq	%rax, %r9
	imulq	120(%rdx), %r9
	addq	-72(%rsp), %r9
	movq	%r9, 320(%r8)
	movq	%r9, -80(%rsp)
	movq	%rax, %r9
	imulq	128(%rdx), %r9
	addq	-64(%rsp), %r9
	movq	%r9, 328(%r8)
	movq	%r9, -72(%rsp)
	movq	%rax, %r9
	imulq	136(%rdx), %r9
	addq	-56(%rsp), %r9
	movq	%r9, 336(%r8)
	movq	%r9, -64(%rsp)
	movq	%rax, %r9
	imulq	144(%rdx), %r9
	addq	-48(%rsp), %r9
	movq	%r9, 344(%r8)
	movq	%r9, -56(%rsp)
	movq	%rax, %r9
	imulq	152(%rdx), %r9
	addq	-40(%rsp), %r9
	movq	%r9, -48(%rsp)
	movq	%r9, 352(%r8)
	movq	%rax, %r9
	imulq	160(%rdx), %r9
	addq	-32(%rsp), %r9
	movq	%r9, -40(%rsp)
	movq	%r9, 360(%r8)
	movq	%rax, %r9
	imulq	168(%rdx), %r9
	addq	-24(%rsp), %r9
	movq	%r9, 368(%r8)
	movq	%r9, -32(%rsp)
	movq	%rax, %r9
	imulq	176(%rdx), %r9
	addq	-16(%rsp), %r9
	movq	%r9, 376(%r8)
	movq	%r9, -24(%rsp)
	imulq	184(%rdx), %rsi
	movq	%rsi, %r9
	addq	-8(%rsp), %r9
	movq	%rax, %rsi
	movq	%r9, 384(%r8)
	movq	%r9, -16(%rsp)
	imulq	192(%rdx), %rsi
	movq	%rsi, %r9
	addq	(%rsp), %r9
	movq	%rax, %rsi
	movq	%r9, 392(%r8)
	movq	%r9, -8(%rsp)
	imulq	200(%rdx), %rsi
	movq	%rsi, %r9
	addq	8(%rsp), %r9
	movq	%rax, %rsi
	movq	%r9, 400(%r8)
	movq	%r9, (%rsp)
	imulq	208(%rdx), %rsi
	movq	%rsi, %r9
	addq	16(%rsp), %r9
	movq	%rax, %rsi
	movq	%r9, 408(%r8)
	movq	%r9, 8(%rsp)
	imulq	216(%rdx), %rsi
	movq	%rsi, %r9
	addq	24(%rsp), %r9
	movq	%rax, %rsi
	movq	%r9, 416(%r8)
	movq	%r9, 16(%rsp)
	imulq	224(%rdx), %rsi
	movq	%rsi, %r9
	addq	32(%rsp), %r9
	movq	%rax, %rsi
	movq	%r9, 24(%rsp)
	movq	%r9, 424(%r8)
	imulq	232(%rdx), %rsi
	movq	56(%rsp), %r9
	addq	40(%rsp), %rsi
	movq	%rsi, 432(%r8)
	movq	%rsi, 32(%rsp)
	movq	%rax, %rsi
	imulq	240(%rdx), %rsi
	addq	%rsi, %rcx
	movq	%rcx, 440(%r8)
	movq	%rcx, 40(%rsp)
	imulq	248(%rdx), %rax
	movq	-120(%rsp), %rcx
	addq	448(%r8), %rax
	movq	%rax, 448(%r8)
	movq	208(%rcx), %rcx
	movq	%rcx, %rsi
	imulq	(%rdx), %rsi
	addq	%r11, %rsi
	movq	%rcx, %r11
	movq	%rsi, 208(%r8)
	movq	%rcx, %rsi
	imulq	8(%rdx), %r11
	addq	%r11, %r10
	movq	%rcx, %r11
	movq	%r10, 216(%r8)
	imulq	16(%rdx), %r11
	addq	%r11, %r9
	movq	%rcx, %r11
	movq	%r9, 224(%r8)
	imulq	24(%rdx), %r11
	addq	%r11, %rdi
	movq	%rdi, 232(%r8)
	movq	%rdi, 48(%rsp)
	movq	%rcx, %rdi
	imulq	32(%rdx), %rdi
	addq	%rdi, %r15
	movq	%rcx, %rdi
	movq	%r15, 240(%r8)
	imulq	40(%rdx), %rdi
	addq	%rdi, %r14
	movq	%rcx, %rdi
	movq	%r14, 248(%r8)
	imulq	48(%rdx), %rdi
	addq	%rdi, %r13
	movq	%rcx, %rdi
	movq	%r13, 256(%r8)
	imulq	56(%rdx), %rdi
	addq	%rdi, %r12
	movq	%rcx, %rdi
	movq	%r12, 264(%r8)
	imulq	64(%rdx), %rdi
	addq	%rdi, %rbp
	movq	%rcx, %rdi
	movq	%rbp, 272(%r8)
	imulq	72(%rdx), %rdi
	movq	-112(%rsp), %r11
	addq	%rdi, %rbx
	movq	%rcx, %rdi
	movq	%rbx, 280(%r8)
	imulq	80(%rdx), %rdi
	addq	%rdi, %r11
	movq	%rcx, %rdi
	movq	%r11, 288(%r8)
	imulq	88(%rdx), %rdi
	addq	-104(%rsp), %rdi
	movq	%rdi, 296(%r8)
	movq	%rdi, -112(%rsp)
	movq	%rcx, %rdi
	imulq	96(%rdx), %rdi
	addq	-96(%rsp), %rdi
	movq	%rdi, 304(%r8)
	movq	%rdi, -104(%rsp)
	movq	%rcx, %rdi
	imulq	104(%rdx), %rdi
	addq	-88(%rsp), %rdi
	movq	%rdi, 312(%r8)
	movq	%rdi, -96(%rsp)
	movq	%rcx, %rdi
	imulq	112(%rdx), %rdi
	addq	-80(%rsp), %rdi
	movq	%rdi, 320(%r8)
	movq	%rdi, -88(%rsp)
	movq	%rcx, %rdi
	imulq	120(%rdx), %rdi
	addq	-72(%rsp), %rdi
	movq	%rdi, 328(%r8)
	movq	%rdi, -80(%rsp)
	movq	%rcx, %rdi
	imulq	128(%rdx), %rdi
	addq	-64(%rsp), %rdi
	movq	%rdi, -72(%rsp)
	movq	%rdi, 336(%r8)
	movq	%rcx, %rdi
	imulq	136(%rdx), %rdi
	addq	-56(%rsp), %rdi
	movq	%rdi, -64(%rsp)
	movq	%rdi, 344(%r8)
	movq	%rcx, %rdi
	imulq	144(%rdx), %rdi
	addq	-48(%rsp), %rdi
	movq	%rdi, 352(%r8)
	movq	%rdi, -56(%rsp)
	movq	%rcx, %rdi
	imulq	152(%rdx), %rdi
	addq	-40(%rsp), %rdi
	movq	%rdi, 360(%r8)
	movq	%rdi, -48(%rsp)
	movq	%rcx, %rdi
	imulq	160(%rdx), %rdi
	addq	-32(%rsp), %rdi
	movq	%rdi, 368(%r8)
	movq	%rdi, -40(%rsp)
	movq	%rcx, %rdi
	imulq	168(%rdx), %rdi
	addq	-24(%rsp), %rdi
	movq	%rdi, 376(%r8)
	movq	%rdi, -32(%rsp)
	movq	%rcx, %rdi
	imulq	176(%rdx), %rdi
	addq	-16(%rsp), %rdi
	movq	%rdi, 384(%r8)
	movq	%rdi, -24(%rsp)
	imulq	184(%rdx), %rsi
	movq	%rsi, %rdi
	addq	-8(%rsp), %rdi
	movq	%rcx, %rsi
	movq	%rdi, 392(%r8)
	movq	%rdi, -16(%rsp)
	imulq	192(%rdx), %rsi
	movq	%rsi, %rdi
	addq	(%rsp), %rdi
	movq	%rcx, %rsi
	movq	%rdi, 400(%r8)
	movq	%rdi, -8(%rsp)
	imulq	200(%rdx), %rsi
	movq	%rsi, %rdi
	addq	8(%rsp), %rdi
	movq	%rcx, %rsi
	movq	%rdi, (%rsp)
	movq	%rdi, 408(%r8)
	imulq	208(%rdx), %rsi
	movq	%rsi, %rdi
	addq	16(%rsp), %rdi
	movq	%rcx, %rsi
	movq	%rdi, 416(%r8)
	movq	%rdi, 8(%rsp)
	imulq	216(%rdx), %rsi
	movq	%rsi, %rdi
	addq	24(%rsp), %rdi
	movq	%rcx, %rsi
	movq	%rdi, 424(%r8)
	movq	%rdi, 16(%rsp)
	imulq	224(%rdx), %rsi
	movq	%rsi, %rdi
	addq	32(%rsp), %rdi
	movq	%rcx, %rsi
	movq	%rdi, 432(%r8)
	movq	%rdi, 24(%rsp)
	imulq	232(%rdx), %rsi
	movq	48(%rsp), %rdi
	addq	40(%rsp), %rsi
	movq	%rsi, 440(%r8)
	movq	%rsi, 32(%rsp)
	movq	%rcx, %rsi
	imulq	240(%rdx), %rsi
	addq	%rsi, %rax
	movq	%rax, 448(%r8)
	movq	%rax, 40(%rsp)
	imulq	248(%rdx), %rcx
	movq	-120(%rsp), %rax
	addq	456(%r8), %rcx
	movq	%rcx, 456(%r8)
	movq	216(%rax), %rax
	movq	%rax, %rsi
	imulq	(%rdx), %rsi
	addq	%r10, %rsi
	movq	%rax, %r10
	movq	%rsi, 216(%r8)
	movq	%rax, %rsi
	imulq	8(%rdx), %r10
	leaq	(%r9,%r10), %r10
	movq	%rax, %r9
	movq	%r10, 224(%r8)
	movq	%r10, 56(%rsp)
	imulq	16(%rdx), %r9
	addq	%r9, %rdi
	movq	%rax, %r9
	movq	%rdi, 232(%r8)
	imulq	24(%rdx), %r9
	movq	-112(%rsp), %r10
	addq	%r9, %r15
	movq	%rax, %r9
	movq	%r15, 240(%r8)
	imulq	32(%rdx), %r9
	addq	%r9, %r14
	movq	%rax, %r9
	movq	%r14, 248(%r8)
	imulq	40(%rdx), %r9
	addq	%r9, %r13
	movq	%rax, %r9
	movq	%r13, 256(%r8)
	imulq	48(%rdx), %r9
	addq	%r9, %r12
	movq	%rax, %r9
	movq	%r12, 264(%r8)
	imulq	56(%rdx), %r9
	addq	%r9, %rbp
	movq	%rax, %r9
	movq	%rbp, 272(%r8)
	imulq	64(%rdx), %r9
	addq	%r9, %rbx
	movq	%rax, %r9
	movq	%rbx, 280(%r8)
	imulq	72(%rdx), %r9
	addq	%r9, %r11
	movq	%rax, %r9
	movq	%r11, 288(%r8)
	imulq	80(%rdx), %r9
	addq	%r9, %r10
	movq	%rax, %r9
	movq	%r10, 296(%r8)
	movq	%r10, -112(%rsp)
	movq	%rax, %r10
	imulq	88(%rdx), %r9
	addq	-104(%rsp), %r9
	movq	%r9, 304(%r8)
	imulq	96(%rdx), %r10
	addq	-96(%rsp), %r10
	movq	%r10, 312(%r8)
	movq	%r10, -104(%rsp)
	movq	%rax, %r10
	imulq	104(%rdx), %r10
	addq	-88(%rsp), %r10
	movq	%r10, -96(%rsp)
	movq	%r10, 320(%r8)
	movq	%rax, %r10
	imulq	112(%rdx), %r10
	addq	-80(%rsp), %r10
	movq	%r10, -88(%rsp)
	movq	%r10, 328(%r8)
	movq	%rax, %r10
	imulq	120(%rdx), %r10
	addq	-72(%rsp), %r10
	movq	%r10, 336(%r8)
	movq	%r10, -80(%rsp)
	movq	%rax, %r10
	imulq	128(%rdx), %r10
	addq	-64(%rsp), %r10
	movq	%r10, 344(%r8)
	movq	%r10, -72(%rsp)
	movq	%rax, %r10
	imulq	136(%rdx), %r10
	addq	-56(%rsp), %r10
	movq	%r10, 352(%r8)
	movq	%r10, -64(%rsp)
	movq	%rax, %r10
	imulq	144(%rdx), %r10
	addq	-48(%rsp), %r10
	movq	%r10, 360(%r8)
	movq	%r10, -56(%rsp)
	movq	%rax, %r10
	imulq	152(%rdx), %r10
	addq	-40(%rsp), %r10
	movq	%r10, 368(%r8)
	movq	%r10, -48(%rsp)
	movq	%rax, %r10
	imulq	160(%rdx), %r10
	addq	-32(%rsp), %r10
	movq	%r10, 376(%r8)
	movq	%r10, -40(%rsp)
	movq	%rax, %r10
	imulq	168(%rdx), %r10
	addq	-24(%rsp), %r10
	movq	%r10, -32(%rsp)
	movq	%r10, 384(%r8)
	movq	%rax, %r10
	imulq	176(%rdx), %r10
	addq	-16(%rsp), %r10
	movq	%r10, -24(%rsp)
	movq	%r10, 392(%r8)
	imulq	184(%rdx), %rsi
	movq	%rsi, %r10
	addq	-8(%rsp), %r10
	movq	%rax, %rsi
	movq	%r10, 400(%r8)
	movq	%r10, -16(%rsp)
	imulq	192(%rdx), %rsi
	movq	%rsi, %r10
	addq	(%rsp), %r10
	movq	%rax, %rsi
	movq	%r10, 408(%r8)
	movq	%r10, -8(%rsp)
	imulq	200(%rdx), %rsi
	movq	%rsi, %r10
	addq	8(%rsp), %r10
	movq	%rax, %rsi
	movq	%r10, 416(%r8)
	movq	%r10, (%rsp)
	imulq	208(%rdx), %rsi
	movq	%rsi, %r10
	addq	16(%rsp), %r10
	movq	%rax, %rsi
	movq	%r10, 424(%r8)
	movq	%r10, 8(%rsp)
	imulq	216(%rdx), %rsi
	movq	%rsi, %r10
	addq	24(%rsp), %r10
	movq	%rax, %rsi
	movq	%r10, 432(%r8)
	movq	%r10, 16(%rsp)
	imulq	224(%rdx), %rsi
	movq	%rsi, %r10
	addq	32(%rsp), %r10
	movq	%rax, %rsi
	movq	%r10, 440(%r8)
	movq	%r10, 24(%rsp)
	movq	%rax, %r10
	imulq	232(%rdx), %rsi
	addq	40(%rsp), %rsi
	movq	%rsi, 448(%r8)
	movq	%rsi, 32(%rsp)
	imulq	240(%rdx), %r10
	addq	%r10, %rcx
	movq	%rcx, 456(%r8)
	movq	%rcx, 40(%rsp)
	imulq	248(%rdx), %rax
	addq	464(%r8), %rax
	movq	-120(%rsp), %rcx
	movq	%rax, 464(%r8)
	movq	224(%rcx), %rcx
	movq	%rcx, %r10
	imulq	(%rdx), %r10
	movq	%r10, %rsi
	addq	56(%rsp), %rsi
	movq	%rcx, %r10
	movq	%rsi, 224(%r8)
	movq	%rcx, %rsi
	imulq	8(%rdx), %r10
	addq	%r10, %rdi
	movq	-112(%rsp), %r10
	movq	%rdi, 232(%r8)
	movq	%rdi, 48(%rsp)
	movq	%rcx, %rdi
	imulq	16(%rdx), %rdi
	addq	%rdi, %r15
	movq	%rcx, %rdi
	movq	%r15, 240(%r8)
	imulq	24(%rdx), %rdi
	addq	%rdi, %r14
	movq	%rcx, %rdi
	movq	%r14, 248(%r8)
	imulq	32(%rdx), %rdi
	addq	%rdi, %r13
	movq	%rcx, %rdi
	movq	%r13, 256(%r8)
	imulq	40(%rdx), %rdi
	addq	%rdi, %r12
	movq	%rcx, %rdi
	movq	%r12, 264(%r8)
	imulq	48(%rdx), %rdi
	addq	%rdi, %rbp
	movq	%rcx, %rdi
	movq	%rbp, 272(%r8)
	imulq	56(%rdx), %rdi
	addq	%rdi, %rbx
	movq	%rcx, %rdi
	movq	%rbx, 280(%r8)
	imulq	64(%rdx), %rdi
	addq	%rdi, %r11
	movq	%rcx, %rdi
	movq	%r11, 288(%r8)
	imulq	72(%rdx), %rdi
	addq	%rdi, %r10
	movq	%rcx, %rdi
	movq	%r10, 296(%r8)
	imulq	80(%rdx), %rdi
	addq	%rdi, %r9
	movq	%rcx, %rdi
	movq	%r9, 304(%r8)
	movq	%r9, -112(%rsp)
	movq	%rcx, %r9
	imulq	88(%rdx), %rdi
	addq	-104(%rsp), %rdi
	movq	%rdi, 312(%r8)
	imulq	96(%rdx), %r9
	addq	-96(%rsp), %r9
	movq	%r9, 320(%r8)
	movq	%r9, -104(%rsp)
	movq	%rcx, %r9
	imulq	104(%rdx), %r9
	addq	-88(%rsp), %r9
	movq	%r9, 328(%r8)
	movq	%r9, -96(%rsp)
	movq	%rcx, %r9
	imulq	112(%rdx), %r9
	addq	-80(%rsp), %r9
	movq	%r9, 336(%r8)
	movq	%r9, -88(%rsp)
	movq	%rcx, %r9
	imulq	120(%rdx), %r9
	addq	-72(%rsp), %r9
	movq	%r9, 344(%r8)
	movq	%r9, -80(%rsp)
	movq	%rcx, %r9
	imulq	128(%rdx), %r9
	addq	-64(%rsp), %r9
	movq	%r9, 352(%r8)
	movq	%r9, -72(%rsp)
	movq	%rcx, %r9
	imulq	136(%rdx), %r9
	addq	-56(%rsp), %r9
	movq	%r9, 360(%r8)
	movq	%r9, -64(%rsp)
	movq	%rcx, %r9
	imulq	144(%rdx), %r9
	addq	-48(%rsp), %r9
	movq	%r9, -56(%rsp)
	movq	%r9, 368(%r8)
	movq	%rcx, %r9
	imulq	152(%rdx), %r9
	addq	-40(%rsp), %r9
	movq	%r9, -48(%rsp)
	movq	%r9, 376(%r8)
	movq	%rcx, %r9
	imulq	160(%rdx), %r9
	addq	-32(%rsp), %r9
	movq	%r9, 384(%r8)
	movq	%r9, -40(%rsp)
	movq	%rcx, %r9
	imulq	168(%rdx), %r9
	addq	-24(%rsp), %r9
	movq	%r9, 392(%r8)
	movq	%r9, -32(%rsp)
	movq	%rcx, %r9
	imulq	176(%rdx), %r9
	addq	-16(%rsp), %r9
	movq	%r9, 400(%r8)
	movq	%r9, -24(%rsp)
	imulq	184(%rdx), %rsi
	movq	%rsi, %r9
	addq	-8(%rsp), %r9
	movq	%rcx, %rsi
	movq	%r9, 408(%r8)
	movq	%r9, -16(%rsp)
	imulq	192(%rdx), %rsi
	movq	%rsi, %r9
	addq	(%rsp), %r9
	movq	%rcx, %rsi
	movq	%r9, 416(%r8)
	movq	%r9, -8(%rsp)
	imulq	200(%rdx), %rsi
	movq	%rsi, %r9
	addq	8(%rsp), %r9
	movq	%rcx, %rsi
	movq	%r9, 424(%r8)
	movq	%r9, (%rsp)
	imulq	208(%rdx), %rsi
	movq	%rsi, %r9
	addq	16(%rsp), %r9
	movq	%rcx, %rsi
	movq	%r9, 432(%r8)
	movq	%r9, 8(%rsp)
	imulq	216(%rdx), %rsi
	movq	%rsi, %r9
	addq	24(%rsp), %r9
	movq	%rcx, %rsi
	movq	%r9, 16(%rsp)
	movq	%r9, 440(%r8)
	imulq	224(%rdx), %rsi
	movq	%rsi, %r9
	addq	32(%rsp), %r9
	movq	%rcx, %rsi
	movq	%r9, 448(%r8)
	movq	%r9, 24(%rsp)
	movq	%rcx, %r9
	imulq	232(%rdx), %rsi
	addq	40(%rsp), %rsi
	movq	%rsi, 456(%r8)
	movq	%rsi, 32(%rsp)
	imulq	240(%rdx), %r9
	addq	%r9, %rax
	movq	%rax, 464(%r8)
	movq	%rax, 40(%rsp)
	imulq	248(%rdx), %rcx
	movq	-120(%rsp), %rax
	addq	472(%r8), %rcx
	movq	%rcx, 472(%r8)
	movq	232(%rax), %rax
	movq	%rcx, 56(%rsp)
	movq	%rax, %rcx
	imulq	(%rdx), %rcx
	movq	%rcx, %rsi
	addq	48(%rsp), %rsi
	movq	%rax, %rcx
	movq	%rsi, 232(%r8)
	imulq	8(%rdx), %rcx
	movq	%rcx, %rsi
	movq	%rax, %rcx
	addq	%r15, %rsi
	movq	%rax, %r15
	movq	%rsi, 240(%r8)
	movq	%rsi, 48(%rsp)
	imulq	16(%rdx), %r15
	movq	%r15, %rsi
	movq	%rax, %r15
	addq	%r14, %rsi
	movq	%rax, %r14
	movq	%rsi, 248(%r8)
	movq	%rsi, 64(%rsp)
	imulq	24(%rdx), %r14
	movq	%r14, %rsi
	movq	%rax, %r14
	addq	%r13, %rsi
	movq	%rsi, 256(%r8)
	movq	%rsi, 72(%rsp)
	imulq	32(%rdx), %r14
	movq	%r14, %rsi
	movq	%rax, %r14
	addq	%r12, %rsi
	movq	%rsi, 80(%rsp)
	movq	%rsi, 264(%r8)
	imulq	40(%rdx), %r14
	movq	-112(%rsp), %r9
	movq	%r14, %rsi
	movq	%rax, %r14
	addq	%rbp, %rsi
	movq	%rsi, 272(%r8)
	movq	%rsi, 88(%rsp)
	movq	%rax, %rsi
	imulq	48(%rdx), %r14
	addq	%r14, %rbx
	movq	%rax, %r14
	movq	%rbx, 280(%r8)
	movq	%rbx, 96(%rsp)
	movq	%rax, %rbx
	imulq	56(%rdx), %rbx
	leaq	(%r11,%rbx), %rbx
	movq	%rbx, 288(%r8)
	movq	%rbx, 104(%rsp)
	movq	%rax, %rbx
	imulq	64(%rdx), %rbx
	leaq	(%r10,%rbx), %rbx
	movq	%rbx, 296(%r8)
	movq	%rbx, 112(%rsp)
	movq	%rax, %rbx
	imulq	72(%rdx), %rbx
	addq	%rbx, %r9
	movq	%rax, %rbx
	movq	%r9, 304(%r8)
	imulq	80(%rdx), %rbx
	leaq	(%rbx,%rdi), %rbx
	movq	%rbx, 312(%r8)
	movq	%rbx, -112(%rsp)
	movq	%rax, %rbx
	imulq	88(%rdx), %rbx
	movq	%rbx, %rdi
	addq	-104(%rsp), %rdi
	movq	%rax, %rbx
	movq	%rdi, 320(%r8)
	imulq	96(%rdx), %rbx
	movq	%rbx, %r10
	addq	-96(%rsp), %r10
	movq	%rax, %rbx
	movq	%r10, 328(%r8)
	imulq	104(%rdx), %rbx
	movq	%rbx, %r11
	addq	-88(%rsp), %r11
	movq	%rax, %rbx
	movq	%r11, 336(%r8)
	imulq	112(%rdx), %rbx
	addq	-80(%rsp), %rbx
	movq	%rbx, 344(%r8)
	imulq	120(%rdx), %r14
	movq	%r14, %rbp
	addq	-72(%rsp), %rbp
	movq	%rax, %r14
	movq	%rbp, 352(%r8)
	imulq	128(%rdx), %r14
	movq	%r14, %r12
	addq	-64(%rsp), %r12
	movq	%rax, %r14
	movq	%r12, 360(%r8)
	imulq	136(%rdx), %r14
	movq	%r14, %r13
	addq	-56(%rsp), %r13
	movq	%rax, %r14
	movq	%r13, 368(%r8)
	imulq	144(%rdx), %r14
	addq	-48(%rsp), %r14
	movq	%r14, 376(%r8)
	imulq	152(%rdx), %r15
	addq	-40(%rsp), %r15
	movq	%r15, 384(%r8)
	imulq	160(%rdx), %rcx
	addq	-32(%rsp), %rcx
	movq	%rcx, 392(%r8)
	movq	%rcx, -104(%rsp)
	movq	%rax, %rcx
	imulq	168(%rdx), %rcx
	addq	-24(%rsp), %rcx
	movq	%rcx, 400(%r8)
	movq	%rcx, -96(%rsp)
	movq	%rax, %rcx
	imulq	176(%rdx), %rcx
	addq	-16(%rsp), %rcx
	movq	%rcx, 408(%r8)
	movq	%rcx, -88(%rsp)
	movq	%rax, %rcx
	imulq	184(%rdx), %rcx
	addq	-8(%rsp), %rcx
	movq	%rcx, -80(%rsp)
	movq	%rcx, 416(%r8)
	movq	%rax, %rcx
	imulq	192(%rdx), %rcx
	addq	(%rsp), %rcx
	movq	%rcx, -72(%rsp)
	movq	%rcx, 424(%r8)
	imulq	200(%rdx), %rsi
	movq	%rsi, %rcx
	addq	8(%rsp), %rcx
	movq	%rax, %rsi
	movq	%rcx, 432(%r8)
	movq	%rcx, -64(%rsp)
	imulq	208(%rdx), %rsi
	movq	%rsi, %rcx
	addq	16(%rsp), %rcx
	movq	%rax, %rsi
	movq	%rcx, 440(%r8)
	movq	%rcx, -56(%rsp)
	imulq	216(%rdx), %rsi
	movq	%rsi, %rcx
	addq	24(%rsp), %rcx
	movq	%rax, %rsi
	movq	%rcx, 448(%r8)
	movq	%rcx, -48(%rsp)
	imulq	224(%rdx), %rsi
	movq	%rsi, %rcx
	addq	32(%rsp), %rcx
	movq	%rax, %rsi
	movq	%rcx, 456(%r8)
	movq	%rcx, -40(%rsp)
	imulq	232(%rdx), %rsi
	addq	40(%rsp), %rsi
	movq	%rsi, 464(%r8)
	movq	%rsi, -32(%rsp)
	movq	%rax, %rsi
	imulq	240(%rdx), %rsi
	addq	56(%rsp), %rsi
	movq	%rsi, 472(%r8)
	movq	%rsi, -24(%rsp)
	imulq	248(%rdx), %rax
	addq	480(%r8), %rax
	movq	%rax, 480(%r8)
	movq	%rax, %rcx
	movq	-120(%rsp), %rax
	movq	240(%rax), %rax
	movq	%rax, %rsi
	imulq	(%rdx), %rsi
	addq	48(%rsp), %rsi
	movq	%rsi, 240(%r8)
	movq	%rax, %rsi
	imulq	8(%rdx), %rsi
	addq	64(%rsp), %rsi
	movq	%rsi, 248(%r8)
	movq	%rsi, -16(%rsp)
	movq	%rax, %rsi
	imulq	16(%rdx), %rsi
	addq	72(%rsp), %rsi
	movq	%rsi, 256(%r8)
	movq	%rsi, -8(%rsp)
	movq	%rax, %rsi
	imulq	24(%rdx), %rsi
	addq	80(%rsp), %rsi
	movq	%rsi, 264(%r8)
	movq	%rsi, (%rsp)
	movq	%rax, %rsi
	imulq	32(%rdx), %rsi
	addq	88(%rsp), %rsi
	movq	%rsi, 272(%r8)
	movq	%rsi, 8(%rsp)
	movq	%rax, %rsi
	imulq	40(%rdx), %rsi
	addq	96(%rsp), %rsi
	movq	%rsi, 280(%r8)
	movq	%rsi, 16(%rsp)
	movq	%rax, %rsi
	imulq	48(%rdx), %rsi
	addq	104(%rsp), %rsi
	movq	%rsi, 288(%r8)
	movq	%rsi, 24(%rsp)
	movq	%rax, %rsi
	imulq	56(%rdx), %rsi
	addq	112(%rsp), %rsi
	movq	%rsi, 296(%r8)
	movq	%rsi, 32(%rsp)
	movq	%rax, %rsi
	imulq	64(%rdx), %rsi
	addq	%rsi, %r9
	movq	%r9, 40(%rsp)
	movq	%r9, 304(%r8)
	movq	%rax, %r9
	imulq	72(%rdx), %r9
	movq	%r9, %rsi
	movq	-112(%rsp), %r9
	addq	%rsi, %r9
	movq	%r9, 312(%r8)
	movq	%r9, -112(%rsp)
	movq	%rax, %r9
	imulq	80(%rdx), %r9
	addq	%rdi, %r9
	movq	%rax, %rdi
	movq	%r9, 320(%r8)
	movq	%r9, 48(%rsp)
	imulq	88(%rdx), %rdi
	addq	%r10, %rdi
	movq	%rax, %r10
	movq	%rdi, 328(%r8)
	movq	%rdi, 56(%rsp)
	movq	%rax, %rdi
	imulq	96(%rdx), %r10
	addq	%r11, %r10
	movq	%rax, %r11
	movq	%r10, 336(%r8)
	movq	%r10, 64(%rsp)
	movq	%rax, %r10
	imulq	104(%rdx), %r11
	addq	%rbx, %r11
	movq	%rax, %rbx
	movq	%r11, 344(%r8)
	movq	%r11, 72(%rsp)
	movq	%rax, %r11
	imulq	112(%rdx), %rdi
	addq	%rbp, %rdi
	movq	%rax, %rbp
	movq	%rdi, 352(%r8)
	movq	%rdi, 80(%rsp)
	movq	%rax, %rdi
	imulq	120(%rdx), %rbp
	addq	%r12, %rbp
	movq	%rax, %r12
	movq	%rbp, 360(%r8)
	movq	%rbp, 88(%rsp)
	imulq	128(%rdx), %r12
	addq	%r13, %r12
	movq	%rax, %r13
	movq	%r12, 368(%r8)
	movq	%r12, 96(%rsp)
	imulq	136(%rdx), %r13
	addq	%r14, %r13
	movq	%rax, %r14
	movq	%r13, 376(%r8)
	movq	%r13, 104(%rsp)
	movq	%rax, %r13
	imulq	144(%rdx), %r14
	addq	%r15, %r14
	movq	%rax, %r15
	movq	%r14, 384(%r8)
	movq	%r14, 112(%rsp)
	movq	%rax, %r14
	imulq	152(%rdx), %r15
	addq	-104(%rsp), %r15
	movq	%r15, -104(%rsp)
	movq	%r15, 392(%r8)
	movq	%rax, %r15
	imulq	160(%rdx), %r11
	addq	-96(%rsp), %r11
	movq	%r11, 400(%r8)
	movq	%r11, -96(%rsp)
	imulq	168(%rdx), %r14
	addq	-88(%rsp), %r14
	movq	%r14, 408(%r8)
	imulq	176(%rdx), %r13
	addq	-80(%rsp), %r13
	movq	%r13, 416(%r8)
	imulq	184(%rdx), %rbx
	movq	%rbx, %r12
	addq	-72(%rsp), %r12
	movq	%rax, %rbx
	movq	%r12, 424(%r8)
	imulq	192(%rdx), %rbx
	movq	%rbx, %rbp
	addq	-64(%rsp), %rbp
	movq	%rax, %rbx
	movq	%rbp, 432(%r8)
	imulq	200(%rdx), %rbx
	addq	-56(%rsp), %rbx
	movq	%rbx, 440(%r8)
	imulq	208(%rdx), %r10
	movq	%r10, %r11
	addq	-48(%rsp), %r11
	movq	%rax, %r10
	movq	%r11, 448(%r8)
	imulq	216(%rdx), %r10
	addq	-40(%rsp), %r10
	movq	%r10, 456(%r8)
	imulq	224(%rdx), %rdi
	movq	%rdi, %r9
	addq	-32(%rsp), %r9
	movq	%rax, %rdi
	movq	%r9, 464(%r8)
	imulq	232(%rdx), %rdi
	addq	-24(%rsp), %rdi
	movq	%rdi, 472(%r8)
	imulq	240(%rdx), %r15
	movq	%r15, %rsi
	addq	%rcx, %rsi
	movq	-120(%rsp), %rcx
	movq	%rsi, 480(%r8)
	imulq	248(%rdx), %rax
	addq	488(%r8), %rax
	movq	%rax, 488(%r8)
	movq	248(%rcx), %rcx
	movq	%rcx, %r15
	imulq	(%rdx), %r15
	addq	-16(%rsp), %r15
	movq	%r15, 248(%r8)
	movq	%rcx, %r15
	imulq	8(%rdx), %r15
	addq	-8(%rsp), %r15
	movq	%r15, 256(%r8)
	movq	%rcx, %r15
	imulq	16(%rdx), %r15
	addq	(%rsp), %r15
	movq	%r15, 264(%r8)
	movq	%rcx, %r15
	imulq	24(%rdx), %r15
	addq	8(%rsp), %r15
	movq	%r15, 272(%r8)
	movq	%rcx, %r15
	imulq	32(%rdx), %r15
	addq	16(%rsp), %r15
	movq	%r15, 280(%r8)
	movq	%rcx, %r15
	imulq	40(%rdx), %r15
	addq	24(%rsp), %r15
	movq	%r15, 288(%r8)
	movq	%rcx, %r15
	imulq	48(%rdx), %r15
	addq	32(%rsp), %r15
	movq	%r15, 296(%r8)
	movq	%rcx, %r15
	imulq	56(%rdx), %r15
	addq	40(%rsp), %r15
	movq	%r15, 304(%r8)
	movq	%rcx, %r15
	imulq	64(%rdx), %r15
	addq	-112(%rsp), %r15
	movq	%r15, 312(%r8)
	movq	%rcx, %r15
	imulq	72(%rdx), %r15
	addq	48(%rsp), %r15
	movq	%r15, 320(%r8)
	movq	%rcx, %r15
	imulq	80(%rdx), %r15
	addq	56(%rsp), %r15
	movq	%r15, 328(%r8)
	movq	%rcx, %r15
	imulq	88(%rdx), %r15
	addq	64(%rsp), %r15
	movq	%r15, 336(%r8)
	movq	%rcx, %r15
	imulq	96(%rdx), %r15
	addq	72(%rsp), %r15
	movq	%r15, 344(%r8)
	movq	%rcx, %r15
	imulq	104(%rdx), %r15
	addq	80(%rsp), %r15
	movq	%r15, 352(%r8)
	movq	%rcx, %r15
	imulq	112(%rdx), %r15
	addq	88(%rsp), %r15
	movq	%r15, 360(%r8)
	movq	%rcx, %r15
	imulq	120(%rdx), %r15
	addq	96(%rsp), %r15
	movq	%r15, 368(%r8)
	movq	%rcx, %r15
	imulq	128(%rdx), %r15
	addq	104(%rsp), %r15
	movq	%r15, 376(%r8)
	movq	%rcx, %r15
	imulq	136(%rdx), %r15
	addq	112(%rsp), %r15
	movq	%r15, 384(%r8)
	movq	%rcx, %r15
	imulq	144(%rdx), %r15
	addq	-104(%rsp), %r15
	movq	%r15, 392(%r8)
	movq	%rcx, %r15
	imulq	152(%rdx), %r15
	addq	-96(%rsp), %r15
	movq	%r15, 400(%r8)
	movq	%rcx, %r15
	imulq	160(%rdx), %r15
	addq	%r15, %r14
	movq	%r14, 408(%r8)
	movq	%rcx, %r14
	imulq	168(%rdx), %r14
	addq	%r14, %r13
	movq	%r13, 416(%r8)
	movq	%rcx, %r13
	imulq	176(%rdx), %r13
	addq	%r13, %r12
	movq	%r12, 424(%r8)
	movq	%rcx, %r12
	imulq	184(%rdx), %r12
	addq	%r12, %rbp
	movq	%rbp, 432(%r8)
	movq	%rcx, %rbp
	imulq	192(%rdx), %rbp
	addq	%rbp, %rbx
	movq	%rbx, 440(%r8)
	movq	%rcx, %rbx
	imulq	200(%rdx), %rbx
	addq	%rbx, %r11
	movq	%r11, 448(%r8)
	movq	%rcx, %r11
	imulq	208(%rdx), %r11
	addq	%r11, %r10
	movq	%r10, 456(%r8)
	movq	%rcx, %r10
	imulq	216(%rdx), %r10
	addq	%r10, %r9
	movq	%r9, 464(%r8)
	movq	%rcx, %r9
	imulq	224(%rdx), %r9
	addq	%r9, %rdi
	movq	%rdi, 472(%r8)
	movq	%rcx, %rdi
	imulq	232(%rdx), %rdi
	addq	%rdi, %rsi
	movq	%rsi, 480(%r8)
	movq	%rcx, %rsi
	imulq	240(%rdx), %rsi
	addq	%rsi, %rax
	movq	%rax, 488(%r8)
	imulq	248(%rdx), %rcx
	addq	%rcx, 496(%r8)
	addq	$120, %rsp
	.cfi_def_cfa_offset 56
	popq	%rbx
	.cfi_def_cfa_offset 48
	popq	%rbp
	.cfi_def_cfa_offset 40
	popq	%r12
	.cfi_def_cfa_offset 32
	popq	%r13
	.cfi_def_cfa_offset 24
	popq	%r14
	.cfi_def_cfa_offset 16
	popq	%r15
	.cfi_def_cfa_offset 8
	ret
	.cfi_endproc
.LFE4606:
	.size	grade_school_mul_32, .-grade_school_mul_32
	.p2align 4,,15
	.globl	up
	.type	up, @function
up:
.LFB4607:
	.cfi_startproc
	movl	$1, %ecx
	movl	$1, %edx
	jmp	.L158
	.p2align 4,,10
	.p2align 3
.L161:
	addq	$1, %rcx
	cmpq	$31, %rcx
	je	.L160
.L158:
	movl	%edx, %eax
	sall	%cl, %eax
	cltq
	cmpq	%rdi, %rax
	jbe	.L161
.L160:
	rep ret
	.cfi_endproc
.LFE4607:
	.size	up, .-up
	.p2align 4,,15
	.globl	karatsuba
	.type	karatsuba, @function
karatsuba:
.LFB4608:
	.cfi_startproc
	pushq	%r13
	.cfi_def_cfa_offset 16
	.cfi_offset 13, -16
	leaq	16(%rsp), %r13
	.cfi_def_cfa 13, 0
	andq	$-32, %rsp
	pushq	-8(%r13)
	pushq	%rbp
	.cfi_escape 0x10,0x6,0x2,0x76,0
	movq	%rsp, %rbp
	pushq	%r15
	pushq	%r14
	pushq	%r13
	.cfi_escape 0xf,0x3,0x76,0x68,0x6
	.cfi_escape 0x10,0xf,0x2,0x76,0x78
	.cfi_escape 0x10,0xe,0x2,0x76,0x70
	pushq	%r12
	pushq	%rbx
	subq	$136, %rsp
	.cfi_escape 0x10,0xc,0x2,0x76,0x60
	.cfi_escape 0x10,0x3,0x2,0x76,0x58
	cmpq	$255, %r8
	movq	%rsi, -112(%rbp)
	movq	%rdx, %rsi
	movq	%rcx, %rdx
	jbe	.L247
	shrq	%r8
	movq	-112(%rbp), %r11
	leaq	32(%rdx), %r14
	leaq	0(,%r8,8), %rax
	movq	%r8, -56(%rbp)
	leaq	32(%rsi), %r13
	movq	%r14, -120(%rbp)
	movq	%rax, %rcx
	leaq	(%rsi,%rax), %r10
	leaq	(%rdx,%rax), %r12
	addq	%rax, %r11
	leaq	(%rdi,%rax), %r15
	movq	%rax, -64(%rbp)
	movq	%r8, %rax
	salq	$4, %rax
	leaq	(%r15,%rcx), %rbx
	movq	%rax, -104(%rbp)
	leaq	(%r8,%r8,2), %rax
	salq	$3, %rax
	movq	%rax, -96(%rbp)
	movq	%r8, %rax
	negq	%rax
	salq	$3, %rax
	movq	%rax, -128(%rbp)
	addq	%rbx, %rax
	movq	%rax, %r9
	movq	%rcx, %rax
	addq	$32, %rax
	movq	%r9, -72(%rbp)
	movq	%rax, %rcx
	addq	%rdx, %rax
	movq	%rax, -136(%rbp)
	leaq	32(%rdi), %rax
	movq	%rax, -80(%rbp)
	movq	%rcx, %rax
	addq	%rdi, %rcx
	cmpq	%rcx, %r10
	movq	%rax, %r14
	movq	%rax, -88(%rbp)
	setnb	%r8b
	addq	%rsi, %r14
	cmpq	%r14, %r9
	setnb	%al
	orl	%eax, %r8d
	cmpq	-80(%rbp), %rsi
	setnb	%r9b
	cmpq	%r13, %rdi
	setnb	%al
	orl	%r9d, %eax
	cmpq	-80(%rbp), %rdx
	setnb	%r9b
	cmpq	-120(%rbp), %rdi
	setnb	-144(%rbp)
	orb	-144(%rbp), %r9b
	andl	%eax, %r9d
	movq	-72(%rbp), %rax
	andl	%r9d, %r8d
	cmpq	%rcx, %r12
	setnb	%r9b
	cmpq	-136(%rbp), %rax
	setnb	%al
	orl	%r9d, %eax
	andl	%eax, %r8d
	cmpq	$0, -88(%rbp)
	movq	-72(%rbp), %rax
	setle	%r9b
	cmpq	-80(%rbp), %rax
	setnb	%al
	orl	%r9d, %eax
	andl	%eax, %r8d
	cmpq	%rcx, %rsi
	setnb	%r9b
	cmpq	%r13, -72(%rbp)
	setnb	%al
	orl	%eax, %r9d
	movq	-72(%rbp), %rax
	andl	%r9d, %r8d
	cmpq	%rcx, %rdx
	setnb	%r9b
	cmpq	-120(%rbp), %rax
	setnb	%al
	orl	%eax, %r9d
	andl	%r9d, %r8d
	leaq	32(%rdi), %r9
	cmpq	%r14, %rdi
	setnb	%al
	cmpq	%r9, %r10
	setnb	%cl
	orl	%ecx, %eax
	testb	%al, %r8b
	je	.L164
	cmpq	-136(%rbp), %rdi
	setnb	%cl
	cmpq	%r9, %r12
	setnb	%al
	orb	%al, %cl
	je	.L164
	movq	%rsi, %rax
	xorl	%r8d, %r8d
	shrq	$3, %rax
	negq	%rax
	andl	$3, %eax
	je	.L165
	movq	(%rsi), %rcx
	subq	(%r10), %rcx
	movl	$1, %r8d
	movq	%rcx, (%rdi)
	movq	(%r12), %rcx
	subq	(%rdx), %rcx
	cmpq	$1, %rax
	movq	%rcx, (%r15)
	je	.L165
	movq	8(%rsi), %rcx
	subq	8(%r10), %rcx
	movl	$2, %r8d
	movq	%rcx, 8(%rdi)
	movq	8(%r12), %rcx
	subq	8(%rdx), %rcx
	cmpq	$3, %rax
	movq	%rcx, 8(%r15)
	jne	.L165
	movq	16(%rsi), %rcx
	subq	16(%r10), %rcx
	movl	$3, %r8d
	movq	%rcx, 16(%rdi)
	movq	16(%r12), %rcx
	subq	16(%rdx), %rcx
	movq	%rcx, 16(%r15)
.L165:
	movq	-56(%rbp), %rcx
	movq	%r12, -176(%rbp)
	movq	%r11, %r12
	subq	%rax, %rcx
	salq	$3, %rax
	movq	%rcx, -160(%rbp)
	subq	$4, %rcx
	shrq	$2, %rcx
	addq	$1, %rcx
	movq	%rcx, -120(%rbp)
	salq	$2, %rcx
	movq	%rcx, -168(%rbp)
	leaq	(%rsi,%rax), %rcx
	movq	%rcx, -136(%rbp)
	movq	-64(%rbp), %rcx
	leaq	(%rcx,%rax), %r9
	leaq	(%rdi,%rax), %rcx
	addq	%rdx, %rax
	movq	%rcx, -144(%rbp)
	leaq	(%rdi,%r9), %rcx
	leaq	(%rsi,%r9), %r14
	leaq	(%rdx,%r9), %r13
	xorl	%r9d, %r9d
	movq	%rcx, -152(%rbp)
	xorl	%ecx, %ecx
.L167:
	vmovdqu	(%r14,%rcx), %xmm0
	addq	$1, %r9
	movq	-136(%rbp), %r11
	vinserti128	$0x1, 16(%r14,%rcx), %ymm0, %ymm0
	vmovdqa	(%r11,%rcx), %ymm1
	movq	-144(%rbp), %r11
	vpsubq	%ymm0, %ymm1, %ymm0
	vmovups	%xmm0, (%r11,%rcx)
	vextracti128	$0x1, %ymm0, 16(%r11,%rcx)
	movq	-152(%rbp), %r11
	vmovdqu	0(%r13,%rcx), %xmm0
	vinserti128	$0x1, 16(%r13,%rcx), %ymm0, %ymm1
	vmovdqu	(%rax,%rcx), %xmm0
	vinserti128	$0x1, 16(%rax,%rcx), %ymm0, %ymm0
	vpsubq	%ymm0, %ymm1, %ymm0
	vmovups	%xmm0, (%r11,%rcx)
	vextracti128	$0x1, %ymm0, 16(%r11,%rcx)
	addq	$32, %rcx
	cmpq	%r9, -120(%rbp)
	ja	.L167
	movq	-168(%rbp), %rax
	movq	%r12, %r11
	movq	-176(%rbp), %r12
	addq	%rax, %r8
	cmpq	%rax, -160(%rbp)
	je	.L235
	movq	(%rsi,%r8,8), %rax
	subq	(%r10,%r8,8), %rax
	movq	-56(%rbp), %r14
	movq	%rax, (%rdi,%r8,8)
	movq	(%r12,%r8,8), %rax
	subq	(%rdx,%r8,8), %rax
	movq	%rax, (%r15,%r8,8)
	leaq	1(%r8), %rax
	cmpq	%rax, %r14
	jbe	.L236
	movq	(%rsi,%rax,8), %rcx
	subq	(%r10,%rax,8), %rcx
	addq	$2, %r8
	movq	%rcx, (%rdi,%rax,8)
	movq	(%r12,%rax,8), %rcx
	subq	(%rdx,%rax,8), %rcx
	cmpq	%r8, %r14
	movq	%rcx, (%r15,%rax,8)
	jbe	.L236
	movq	(%rsi,%r8,8), %rax
	subq	(%r10,%r8,8), %rax
	movq	%rax, (%rdi,%r8,8)
	movq	(%r12,%r8,8), %rax
	subq	(%rdx,%r8,8), %rax
	movq	%rax, (%r15,%r8,8)
	vzeroupper
	movq	%r14, %r8
.L172:
	movq	-112(%rbp), %r13
	movq	%rdi, %r14
	movq	%rdx, -136(%rbp)
	movq	%rsi, -120(%rbp)
	movq	%rdi, %rdx
	movq	%r15, %rcx
	movq	%rbx, %rsi
	movq	%r11, -152(%rbp)
	movq	%r10, -144(%rbp)
	movq	%r13, %rdi
	call	karatsuba
	movq	-144(%rbp), %r10
	movq	-56(%rbp), %r8
	movq	%r12, %rcx
	movq	%r14, %rsi
	movq	%rbx, %rdi
	movq	%r10, %rdx
	call	karatsuba
	movq	-104(%rbp), %r11
	movq	-64(%rbp), %rcx
	leaq	32(%r13), %rsi
	movq	-72(%rbp), %rax
	movq	-88(%rbp), %r10
	movq	-96(%rbp), %rdi
	movq	-128(%rbp), %rdx
	leaq	32(%r11), %r12
	movq	%rsi, -72(%rbp)
	addq	%rcx, %rax
	cmpq	%rcx, %r12
	leaq	32(%rdi), %r8
	leaq	(%rax,%rdx), %rsi
	setle	%cl
	cmpq	%r11, %r10
	leaq	(%r14,%r12), %r9
	setle	%dl
	orl	%edx, %ecx
	cmpq	%rdi, %r12
	setle	%dil
	cmpq	%r11, %r8
	movq	-152(%rbp), %r11
	setle	%dl
	orl	%edx, %edi
	andl	%edi, %ecx
	leaq	0(%r13,%r10), %rdi
	cmpq	%r9, %r11
	setnb	%dl
	cmpq	%rdi, %rax
	setnb	%r10b
	orl	%r10d, %edx
	andl	%ecx, %edx
	cmpq	%r9, %r13
	movq	-96(%rbp), %r9
	setnb	%cl
	cmpq	-72(%rbp), %rax
	setnb	%r10b
	orl	%r10d, %ecx
	andl	%ecx, %edx
	cmpq	-64(%rbp), %r8
	movq	-88(%rbp), %r8
	setle	%cl
	cmpq	%r8, %r9
	setge	%r10b
	orl	%r10d, %ecx
	andl	%ecx, %edx
	leaq	(%r14,%r8), %rcx
	cmpq	%rcx, %r11
	setnb	%al
	cmpq	%rdi, %rsi
	setnb	%dil
	orl	%edi, %eax
	testb	%al, %dl
	je	.L173
	cmpq	%rcx, %r13
	setnb	%dl
	cmpq	%rsi, -72(%rbp)
	setbe	%al
	orb	%al, %dl
	je	.L173
	addq	-64(%rbp), %rsi
	xorl	%ecx, %ecx
	movq	%rsi, %rax
	movq	%rsi, -112(%rbp)
	shrq	$3, %rax
	negq	%rax
	andl	$3, %eax
	je	.L174
	movq	0(%r13), %rdx
	addq	(%rbx), %rdx
	movl	$1, %ecx
	movq	%rdx, (%r15)
	movq	(%r11), %rdx
	addq	(%rbx), %rdx
	addq	(%r14,%r9), %rdx
	cmpq	$1, %rax
	movq	%rdx, (%rbx)
	je	.L174
	movq	8(%r13), %rdx
	addq	8(%rbx), %rdx
	movl	$2, %ecx
	movq	%rdx, 8(%r15)
	movq	8(%r11), %rdx
	addq	8(%rbx), %rdx
	addq	8(%r14,%r9), %rdx
	cmpq	$3, %rax
	movq	%rdx, 8(%rbx)
	jne	.L174
	movq	16(%r13), %rdx
	addq	16(%rbx), %rdx
	movl	$3, %ecx
	movq	%rdx, 16(%r15)
	movq	16(%r11), %rdx
	addq	16(%rbx), %rdx
	addq	16(%r14,%r9), %rdx
	movq	%rdx, 16(%rbx)
.L174:
	movq	-56(%rbp), %r10
	movq	%rcx, -176(%rbp)
	movq	%r10, %rsi
	movq	%r10, %rdi
	subq	%rax, %rsi
	leaq	-4(%rsi), %rdx
	movq	%rsi, -160(%rbp)
	shrq	$2, %rdx
	leaq	1(%rdx), %rsi
	leaq	(%rax,%r10,2), %rdx
	salq	$3, %rax
	leaq	0(%r13,%rax), %r10
	movq	%rsi, -144(%rbp)
	salq	$2, %rsi
	movq	%rsi, -168(%rbp)
	leaq	(%r14,%rdx,8), %rsi
	addq	%rdi, %rdx
	leaq	(%r14,%rdx,8), %r8
	xorl	%edi, %edi
	xorl	%edx, %edx
	movq	%rsi, -152(%rbp)
	movq	-64(%rbp), %rsi
	movq	-152(%rbp), %rcx
	addq	%rax, %rsi
	addq	-104(%rbp), %rax
	leaq	(%r14,%rsi), %r9
	addq	%r13, %rsi
	addq	%r14, %rax
.L176:
	vmovdqu	(%r10,%rdx), %xmm0
	addq	$1, %rdi
	vinserti128	$0x1, 16(%r10,%rdx), %ymm0, %ymm0
	vpaddq	(%rcx,%rdx), %ymm0, %ymm0
	vmovups	%xmm0, (%r9,%rdx)
	vextracti128	$0x1, %ymm0, 16(%r9,%rdx)
	vmovdqu	(%r8,%rdx), %xmm0
	vinserti128	$0x1, 16(%r8,%rdx), %ymm0, %ymm0
	vpaddq	(%rcx,%rdx), %ymm0, %ymm1
	vmovdqu	(%rsi,%rdx), %xmm0
	vinserti128	$0x1, 16(%rsi,%rdx), %ymm0, %ymm0
	vpaddq	%ymm0, %ymm1, %ymm0
	vmovdqa	%ymm0, (%rax,%rdx)
	addq	$32, %rdx
	cmpq	%rdi, -144(%rbp)
	ja	.L176
	movq	-168(%rbp), %rax
	movq	-176(%rbp), %rcx
	addq	%rax, %rcx
	cmpq	%rax, -160(%rbp)
	je	.L237
	leaq	0(,%rcx,8), %rdi
	movq	-56(%rbp), %r10
	leaq	(%rbx,%rdi), %rsi
	movq	(%rsi), %rax
	addq	0(%r13,%rcx,8), %rax
	movq	%rax, (%r15,%rcx,8)
	movq	-96(%rbp), %rax
	movq	(%rsi), %rdx
	addq	(%r11,%rcx,8), %rdx
	addq	%r14, %rax
	addq	(%rax,%rdi), %rdx
	movq	%rdx, (%rsi)
	leaq	1(%rcx), %rdx
	cmpq	%rdx, %r10
	jbe	.L238
	leaq	0(,%rdx,8), %r8
	addq	$2, %rcx
	leaq	(%rbx,%r8), %rsi
	movq	(%rsi), %rdi
	addq	0(%r13,%rdx,8), %rdi
	movq	%rdi, (%r15,%rdx,8)
	movq	(%rsi), %rdi
	addq	(%r11,%rdx,8), %rdi
	addq	(%rax,%r8), %rdi
	cmpq	%rcx, %r10
	movq	%rdi, (%rsi)
	jbe	.L238
	leaq	0(,%rcx,8), %rdi
	leaq	(%rbx,%rdi), %rsi
	movq	(%rsi), %rdx
	addq	0(%r13,%rcx,8), %rdx
	movq	%rdx, (%r15,%rcx,8)
	movq	(%rsi), %rdx
	addq	(%r11,%rcx,8), %rdx
	addq	(%rax,%rdi), %rdx
	movq	%rdx, (%rsi)
	vzeroupper
	movq	%r10, %r8
.L181:
	movq	-136(%rbp), %rcx
	movq	-120(%rbp), %rdx
	movq	%r14, %rsi
	movq	%r13, %rdi
	movq	%r11, -96(%rbp)
	call	karatsuba
	movq	-112(%rbp), %r9
	movq	-128(%rbp), %rax
	movq	-88(%rbp), %r10
	movq	-96(%rbp), %r11
	addq	%r9, %rax
	cmpq	%r10, -104(%rbp)
	leaq	0(%r13,%r10), %rsi
	setge	%cl
	cmpq	%r12, -64(%rbp)
	setge	%dl
	orl	%edx, %ecx
	cmpq	-80(%rbp), %r13
	setnb	%dl
	cmpq	-72(%rbp), %r14
	setnb	%dil
	orl	%edi, %edx
	leaq	(%r14,%r12), %rdi
	andl	%edx, %ecx
	cmpq	%rdi, %r11
	setnb	%dl
	cmpq	%r9, %rsi
	setbe	%r8b
	orl	%r8d, %edx
	movq	-112(%rbp), %r8
	andl	%edx, %ecx
	testq	%r12, %r12
	movq	-80(%rbp), %r12
	setle	%r9b
	cmpq	%r12, %r8
	setnb	%dl
	orl	%edx, %r9d
	andl	%r9d, %ecx
	cmpq	%rdi, %r13
	movq	%r10, %rdi
	setnb	%dl
	cmpq	-72(%rbp), %r8
	setnb	%r9b
	addq	%r14, %rdi
	orl	%r9d, %edx
	andl	%edx, %ecx
	cmpq	%rdi, %r11
	setnb	%dl
	cmpq	%rax, %rsi
	setbe	%r8b
	orl	%r8d, %edx
	andl	%edx, %ecx
	testq	%r10, %r10
	setle	%r10b
	cmpq	%r12, %rax
	setnb	%dl
	orl	%edx, %r10d
	andl	%r10d, %ecx
	cmpq	%rdi, %r13
	setnb	%dl
	cmpq	-72(%rbp), %rax
	setnb	%al
	orl	%edx, %eax
	testb	%al, %cl
	je	.L182
	cmpq	%rsi, %r14
	setnb	%dl
	cmpq	%r12, %r11
	setnb	%al
	orb	%al, %dl
	je	.L182
	movq	%r13, %rdx
	xorl	%esi, %esi
	shrq	$3, %rdx
	negq	%rdx
	andl	$3, %edx
	je	.L183
	movq	0(%r13), %rax
	movl	$1, %esi
	movq	%rax, (%r14)
	movq	0(%r13), %rax
	addq	(%r15), %rax
	addq	(%r11), %rax
	movq	%rax, (%r15)
	movq	(%r11), %rax
	addq	%rax, (%rbx)
	cmpq	$1, %rdx
	je	.L183
	movq	8(%r13), %rax
	movl	$2, %esi
	movq	%rax, 8(%r14)
	movq	8(%r15), %rax
	addq	8(%r13), %rax
	addq	8(%r11), %rax
	movq	%rax, 8(%r15)
	movq	8(%r11), %rax
	addq	%rax, 8(%rbx)
	cmpq	$3, %rdx
	jne	.L183
	movq	16(%r13), %rax
	movl	$3, %esi
	movq	%rax, 16(%r14)
	movq	16(%r13), %rax
	addq	16(%r15), %rax
	addq	16(%r11), %rax
	movq	%rax, 16(%r15)
	movq	16(%r11), %rax
	addq	%rax, 16(%rbx)
.L183:
	movq	-56(%rbp), %r9
	leaq	0(,%rdx,8), %rcx
	xorl	%r8d, %r8d
	leaq	(%r14,%rcx), %r10
	movq	%r9, %rax
	subq	%rdx, %rax
	addq	%r9, %rdx
	leaq	-4(%rax), %r12
	movq	%rax, -80(%rbp)
	leaq	0(%r13,%rdx,8), %r9
	xorl	%edx, %edx
	shrq	$2, %r12
	leaq	1(%r12), %rax
	leaq	0(%r13,%rcx), %r12
	movq	%rax, -72(%rbp)
	salq	$2, %rax
	movq	%rax, -88(%rbp)
	movq	-64(%rbp), %rax
	addq	%rcx, %rax
	addq	-104(%rbp), %rcx
	leaq	(%r14,%rax), %rdi
	addq	%r13, %rax
	addq	%r14, %rcx
.L185:
	vmovdqa	(%r12,%rdx), %ymm0
	addq	$1, %r8
	vmovups	%xmm0, (%r10,%rdx)
	vextracti128	$0x1, %ymm0, 16(%r10,%rdx)
	vmovdqu	(%rdi,%rdx), %xmm0
	vinserti128	$0x1, 16(%rdi,%rdx), %ymm0, %ymm0
	vpaddq	(%r12,%rdx), %ymm0, %ymm1
	vmovdqu	(%rax,%rdx), %xmm0
	vinserti128	$0x1, 16(%rax,%rdx), %ymm0, %ymm0
	vpaddq	%ymm0, %ymm1, %ymm0
	vmovups	%xmm0, (%rdi,%rdx)
	vextracti128	$0x1, %ymm0, 16(%rdi,%rdx)
	vmovdqu	(%rcx,%rdx), %xmm0
	vinserti128	$0x1, 16(%rcx,%rdx), %ymm0, %ymm1
	vmovdqu	(%r9,%rdx), %xmm0
	vinserti128	$0x1, 16(%r9,%rdx), %ymm0, %ymm0
	vpaddq	%ymm1, %ymm0, %ymm0
	vmovups	%xmm0, (%rcx,%rdx)
	vextracti128	$0x1, %ymm0, 16(%rcx,%rdx)
	addq	$32, %rdx
	cmpq	%r8, -72(%rbp)
	ja	.L185
	movq	-88(%rbp), %rax
	addq	%rax, %rsi
	cmpq	%rax, -80(%rbp)
	je	.L240
	leaq	0(,%rsi,8), %rax
	movq	-56(%rbp), %r10
	leaq	0(%r13,%rax), %r8
	leaq	(%r15,%rax), %rdi
	leaq	(%r11,%rax), %rcx
	movq	(%r8), %rdx
	movq	%rdx, (%r14,%rsi,8)
	movq	(%rdi), %rdx
	addq	(%r8), %rdx
	addq	(%rcx), %rdx
	movq	%rdx, (%rdi)
	movq	(%rcx), %rdx
	addq	%rdx, (%rbx,%rax)
	leaq	1(%rsi), %rdx
	cmpq	%rdx, %r10
	jbe	.L240
	leaq	0(,%rdx,8), %rax
	addq	$2, %rsi
	leaq	0(%r13,%rax), %r8
	leaq	(%r15,%rax), %rdi
	movq	(%r8), %rcx
	movq	%rcx, (%r14,%rdx,8)
	leaq	(%r11,%rax), %rcx
	movq	(%r8), %rdx
	addq	(%rdi), %rdx
	addq	(%rcx), %rdx
	movq	%rdx, (%rdi)
	movq	(%rcx), %rdx
	addq	%rdx, (%rbx,%rax)
	cmpq	%rsi, %r10
	jbe	.L240
	leaq	0(,%rsi,8), %rax
	addq	%rax, %r13
	leaq	(%r15,%rax), %rdi
	leaq	(%r11,%rax), %rcx
	movq	0(%r13), %rdx
	movq	%rdx, (%r14,%rsi,8)
	movq	0(%r13), %rdx
	addq	(%rdi), %rdx
	addq	(%rcx), %rdx
	movq	%rdx, (%rdi)
	movq	(%rcx), %rdx
	addq	%rdx, (%rbx,%rax)
	vzeroupper
.L241:
	addq	$136, %rsp
	popq	%rbx
	popq	%r12
	popq	%r13
	.cfi_remember_state
	.cfi_def_cfa 13, 0
	popq	%r14
	popq	%r15
	popq	%rbp
	leaq	-16(%r13), %rsp
	.cfi_def_cfa 7, 16
	popq	%r13
	.cfi_def_cfa_offset 8
	ret
	.p2align 4,,10
	.p2align 3
.L240:
	.cfi_restore_state
	vzeroupper
	jmp	.L241
	.p2align 4,,10
	.p2align 3
.L247:
	addq	$136, %rsp
	movq	%r8, %rcx
	popq	%rbx
	popq	%r12
	popq	%r13
	.cfi_remember_state
	.cfi_def_cfa 13, 0
	popq	%r14
	popq	%r15
	popq	%rbp
	leaq	-16(%r13), %rsp
	.cfi_def_cfa 7, 16
	popq	%r13
	.cfi_def_cfa_offset 8
	jmp	grade_school_mul_optim@PLT
	.p2align 4,,10
	.p2align 3
.L236:
	.cfi_restore_state
	vzeroupper
	movq	%r14, %r8
	jmp	.L172
	.p2align 4,,10
	.p2align 3
.L238:
	vzeroupper
	movq	%r10, %r8
	jmp	.L181
	.p2align 4,,10
	.p2align 3
.L182:
	movq	-56(%rbp), %rcx
	xorl	%eax, %eax
	.p2align 4,,10
	.p2align 3
.L189:
	movq	0(%r13,%rax,8), %rdx
	movq	%rdx, (%r14,%rax,8)
	movq	0(%r13,%rax,8), %rdx
	addq	(%r15,%rax,8), %rdx
	addq	(%r11,%rax,8), %rdx
	movq	%rdx, (%r15,%rax,8)
	movq	(%r11,%rax,8), %rdx
	addq	%rdx, (%rbx,%rax,8)
	addq	$1, %rax
	cmpq	%rax, %rcx
	jne	.L189
	jmp	.L241
	.p2align 4,,10
	.p2align 3
.L164:
	movq	-56(%rbp), %r8
	xorl	%eax, %eax
	.p2align 4,,10
	.p2align 3
.L171:
	movq	(%rsi,%rax,8), %rcx
	subq	(%r10,%rax,8), %rcx
	movq	%